Certificate:
    Data:
        Version: 3 (0x2)
        Serial Number:
            bf:cd:c1:d3:47:07:49:37
        Signature Algorithm: sha1WithRSAEncryption
        Issuer: C=US, ST=New York, O=Default Company Ltd, OU=Testing, CN=fedmsg-test/emailAddress=rbean@redhat.com
        Validity
            Not Before: Jun 20 22:33:50 2012 GMT
            Not After : Jun 20 22:33:50 2015 GMT
        Subject: C=US, ST=New York, O=Default Company Ltd, OU=Testing, CN=fedmsg-test/emailAddress=rbean@redhat.com
        Subject Public Key Info:
            Public Key Algorithm: rsaEncryption
                Public-Key: (2048 bit)
                Modulus:
                    00:ca:82:cc:82:7b:5c:3f:a6:dd:eb:14:e8:00:4b:
                    68:d6:b9:9e:71:6d:d6:d1:e5:11:4e:37:44:1e:05:
                    31:07:46:a6:7f:cc:e0:d7:b5:73:6f:75:7b:c5:05:
                    fa:4a:6e:8e:3a:47:8b:b7:fb:39:14:36:10:2c:8c:
                    e5:cd:52:1d:5d:01:77:c2:79:33:a1:af:a0:bb:2c:
                    77:82:13:88:51:ac:9e:0a:ea:97:6e:55:b2:3b:f2:
                    ca:7c:55:35:68:2a:c1:40:14:e9:a9:d6:4a:bb:07:
                    03:59:75:82:1b:9f:f5:df:7b:8a:b9:c9:28:d8:16:
                    5d:9d:7a:5b:33:c0:92:9b:2b:8e:eb:4e:81:26:6e:
                    97:3c:4b:09:69:c3:7c:56:7d:0f:74:92:89:b6:7a:
                    16:62:1e:b8:55:e9:a8:42:52:85:2b:8b:65:58:46:
                    41:40:29:af:af:ad:dd:15:ea:2b:7d:ab:9c:e7:e5:
                    e4:88:c3:b7:bf:36:91:e2:5e:d0:33:d3:b8:ed:69:
                    74:19:27:e7:8c:8f:55:b8:43:4b:e2:63:39:9d:39:
                    bd:be:99:54:79:ad:3f:2c:ac:ae:e4:f6:92:4d:dd:
                    0f:9f:44:ba:99:ec:7e:a1:da:d1:00:1a:5b:a7:46:
                    76:d5:2e:ee:d2:99:05:3f:de:8c:0b:5b:0c:10:00:
                    75:5f
                Exponent: 65537 (0x10001)
        X509v3 extensions:
            X509v3 Subject Key Identifier: 
                63:E0:75:7B:58:2B:5B:F0:17:98:26:1D:DA:F8:B9:E0:31:C0:DF:01
            X509v3 Authority Key Identifier: 
                keyid:63:E0:75:7B:58:2B:5B:F0:17:98:26:1D:DA:F8:B9:E0:31:C0:DF:01

            X509v3 Basic Constraints: 
                CA:TRUE
    Signature Algorithm: sha1WithRSAEncryption
        62:70:a9:42:fb:18:4b:e8:2b:e4:89:0e:19:91:83:5e:fb:a2:
        c2:75:5c:08:c6:ec:5f:40:fa:3a:1c:07:de:58:ac:3a:9c:00:
        60:a6:ef:cf:9d:13:81:9b:bc:54:a6:73:73:b4:0d:11:39:24:
        63:31:cb:72:e4:cf:7a:14:a4:37:22:53:43:5a:77:28:46:f5:
        bf:a3:4b:60:59:9e:f7:56:97:d4:97:70:93:91:2a:d1:45:b1:
        8a:7e:20:b1:a3:74:8c:d4:b5:03:ce:02:dd:84:f5:48:90:ea:
        52:17:47:2c:e0:6f:56:aa:a0:7c:db:12:b1:a1:14:4e:b6:5e:
        65:18:08:d8:69:20:c1:1f:16:cb:06:4b:3a:07:7d:00:b9:65:
        a1:3e:e1:0d:2e:8f:f7:d9:ae:8c:48:90:58:71:d3:5a:86:bc:
        1d:3a:a9:33:6f:65:9f:b0:26:66:22:34:56:18:49:e7:64:65:
        45:8e:d2:c2:73:65:01:56:bf:6d:ec:12:45:76:54:75:46:6f:
        76:11:ff:7e:65:62:30:6d:81:4c:3f:46:da:dd:e4:b9:03:db:
        dd:ab:6f:2c:36:bb:51:e1:72:39:f8:2f:ee:3d:20:c6:4a:4a:
        73:6b:08:05:05:2d:f3:ac:73:9d:58:94:bb:67:5c:05:7c:a0:
        4c:56:30:0f
-----BEGIN CERTIFICATE-----
MIID4zCCAsugAwIBAgIJAL/NwdNHB0k3MA0GCSqGSIb3DQEBBQUAMIGHMQswCQYD
VQQGEwJVUzERMA8GA1UECAwITmV3IFlvcmsxHDAaBgNVBAoME0RlZmF1bHQgQ29t
cGFueSBMdGQxEDAOBgNVBAsMB1Rlc3RpbmcxFDASBgNVBAMMC2ZlZG1zZy10ZXN0
MR8wHQYJKoZIhvcNAQkBFhByYmVhbkByZWRoYXQuY29tMB4XDTEyMDYyMDIyMzM1
MFoXDTE1MDYyMDIyMzM1MFowgYcxCzAJBgNVBAYTAlVTMREwDwYDVQQIDAhOZXcg
WW9yazEcMBoGA1UECgwTRGVmYXVsdCBDb21wYW55IEx0ZDEQMA4GA1UECwwHVGVz
dGluZzEUMBIGA1UEAwwLZmVkbXNnLXRlc3QxHzAdBgkqhkiG9w0BCQEWEHJiZWFu
QHJlZGhhdC5jb20wggEiMA0GCSqGSIb3DQEBAQUAA4IBDwAwggEKAoIBAQDKgsyC
e1w/pt3rFOgAS2jWuZ5xbdbR5RFON0QeBTEHRqZ/zODXtXNvdXvFBfpKbo46R4u3
+zkUNhAsjOXNUh1dAXfCeTOhr6C7LHeCE4hRrJ4K6pduVbI78sp8VTVoKsFAFOmp
1kq7BwNZdYIbn/Xfe4q5ySjYFl2delszwJKbK47rToEmbpc8Swlpw3xWfQ90kom2
ehZiHrhV6ahCUoUri2VYRkFAKa+vrd0V6it9q5zn5eSIw7e/NpHiXtAz07jtaXQZ
J+eMj1W4Q0viYzmdOb2+mVR5rT8srK7k9pJN3Q+fRLqZ7H6h2tEAGlunRnbVLu7S
mQU/3owLWwwQAHVfAgMBAAGjUDBOMB0GA1UdDgQWBBRj4HV7WCtb8BeYJh3a+Lng
McDfATAfBgNVHSMEGDAWgBRj4HV7WCtb8BeYJh3a+LngMcDfATAMBgNVHRMEBTAD
AQH/MA0GCSqGSIb3DQEBBQUAA4IBAQBicKlC+xhL6CvkiQ4ZkYNe+6LCdVwIxuxf
QPo6HAfeWKw6nABgpu/PnROBm7xUpnNztA0ROSRjMcty5M96FKQ3IlNDWncoRvW/
o0tgWZ73VpfUl3CTkSrRRbGKfiCxo3SM1LUDzgLdhPVIkOpSF0cs4G9WqqB82xKx
oRROtl5lGAjYaSDBHxbLBks6B30AuWWhPuENLo/32a6MSJBYcdNahrwdOqkzb2Wf
sCZmIjRWGEnnZGVFjtLCc2UBVr9t7BJFdlR1Rm92Ef9+ZWIwbYFMP0ba3eS5A9vd
q28sNrtR4XI5+C/uPSDGSkpzawgFBS3zrHOdWJS7Z1wFfKBMVjAP
-----END CERTIFICATE-----
