Certificate:
    Data:
        Version: 3 (0x2)
        Serial Number:
            bf:cd:c1:d3:47:07:49:38
        Signature Algorithm: sha1WithRSAEncryption
        Issuer: C=US, ST=New York, O=Default Company Ltd, OU=Testing, CN=fedmsg-test/emailAddress=rbean@redhat.com
        Validity
            Not Before: Jun 20 22:35:54 2012 GMT
            Not After : Jun 20 22:35:54 2013 GMT
        Subject: C=US, ST=New York, L=Default City, O=Default Company Ltd, OU=Testing, CN=marat
        Subject Public Key Info:
            Public Key Algorithm: rsaEncryption
                Public-Key: (2048 bit)
                Modulus:
                    00:de:7d:01:68:df:47:de:75:eb:d7:85:9a:60:f2:
                    f5:91:b9:d6:9b:a4:66:2d:f7:06:61:10:6f:4a:e2:
                    86:94:8f:33:6a:71:b3:1e:c8:62:e2:0b:94:34:f7:
                    9a:0c:65:15:77:93:f0:c8:95:c8:a5:b0:f6:6d:2a:
                    2d:5a:8b:c7:6d:36:79:d6:e3:ac:72:b5:90:e7:29:
                    6f:88:2e:a6:8f:ff:ae:95:e2:57:f7:20:88:55:46:
                    04:02:7d:f5:1f:c8:90:11:5e:fa:5b:46:f0:47:74:
                    f7:42:0b:00:2f:36:68:e6:3a:84:5f:c3:f6:19:56:
                    a9:ce:fd:f6:9f:d1:a3:1f:8c:66:5a:fb:cb:d6:c4:
                    8d:c3:07:c7:36:6a:0d:81:05:46:82:a5:2c:9c:84:
                    b9:08:3d:cd:e5:10:09:95:6b:5c:92:ca:90:be:5f:
                    5e:b7:1a:58:9b:f8:f8:de:22:44:39:ba:bc:a4:94:
                    fe:21:b8:78:4a:72:66:03:57:04:4d:6f:a1:4a:6d:
                    0c:90:75:bf:e8:10:c5:53:88:70:fd:83:06:d8:6a:
                    2d:62:35:03:5e:73:df:06:a0:c3:c7:94:1e:5e:61:
                    c7:ed:19:18:b8:69:49:1f:1a:34:df:93:f5:60:89:
                    f3:e3:7a:18:6f:cc:44:45:2b:ea:f8:2f:52:ee:4b:
                    d3:c1
                Exponent: 65537 (0x10001)
        X509v3 extensions:
            X509v3 Basic Constraints: 
                CA:FALSE
            Netscape Comment: 
                OpenSSL Generated Certificate
            X509v3 Subject Key Identifier: 
                A3:EF:88:92:30:63:CF:71:94:BE:8D:E1:A8:E9:8B:E2:5D:49:F0:9B
            X509v3 Authority Key Identifier: 
                keyid:63:E0:75:7B:58:2B:5B:F0:17:98:26:1D:DA:F8:B9:E0:31:C0:DF:01

    Signature Algorithm: sha1WithRSAEncryption
        a0:91:a8:ad:8a:7a:da:77:93:5b:2b:42:4d:16:5c:a9:07:7d:
        92:32:f1:bc:2e:ab:d1:05:4e:bb:09:8a:c2:48:d1:24:ec:89:
        a3:8d:5e:15:ed:c8:9e:44:15:3e:9e:e6:42:68:b7:d1:b5:8a:
        1b:c7:6e:20:cc:4e:59:4b:ef:9d:e8:ea:b0:04:1a:60:d1:77:
        2e:5d:53:a3:d6:60:82:39:7e:9d:e9:6d:96:41:c9:9d:95:89:
        e3:d3:6a:6c:a4:54:ed:41:df:5c:4b:e0:db:85:86:ed:f8:a0:
        94:a1:08:9f:ca:43:45:62:eb:cc:5b:ec:21:3c:43:30:47:77:
        0c:aa:e7:6b:49:20:bf:0b:ba:37:93:6f:cc:d5:dd:9f:95:a6:
        41:e0:2a:31:1e:ef:20:21:5b:b0:7c:4c:08:43:50:a9:92:c4:
        27:73:45:18:6e:3a:33:ef:91:fa:ae:79:96:a1:c9:a7:1e:28:
        65:35:dc:78:41:cf:e8:09:f2:2d:01:c6:09:1f:2f:35:13:fd:
        e6:e3:f8:bd:ce:1f:a0:af:66:b0:9f:ff:0f:54:89:c8:ed:cb:
        60:78:90:eb:04:40:13:5a:13:f8:79:87:ae:08:2a:fc:51:b0:
        30:64:d9:14:8f:4c:2b:ce:69:42:f8:5e:e1:7f:d8:3a:ab:45:
        96:19:6d:de
-----BEGIN CERTIFICATE-----
MIID/TCCAuWgAwIBAgIJAL/NwdNHB0k4MA0GCSqGSIb3DQEBBQUAMIGHMQswCQYD
VQQGEwJVUzERMA8GA1UECAwITmV3IFlvcmsxHDAaBgNVBAoME0RlZmF1bHQgQ29t
cGFueSBMdGQxEDAOBgNVBAsMB1Rlc3RpbmcxFDASBgNVBAMMC2ZlZG1zZy10ZXN0
MR8wHQYJKoZIhvcNAQkBFhByYmVhbkByZWRoYXQuY29tMB4XDTEyMDYyMDIyMzU1
NFoXDTEzMDYyMDIyMzU1NFowdzELMAkGA1UEBhMCVVMxETAPBgNVBAgMCE5ldyBZ
b3JrMRUwEwYDVQQHDAxEZWZhdWx0IENpdHkxHDAaBgNVBAoME0RlZmF1bHQgQ29t
cGFueSBMdGQxEDAOBgNVBAsMB1Rlc3RpbmcxDjAMBgNVBAMMBW1hcmF0MIIBIjAN
BgkqhkiG9w0BAQEFAAOCAQ8AMIIBCgKCAQEA3n0BaN9H3nXr14WaYPL1kbnWm6Rm
LfcGYRBvSuKGlI8zanGzHshi4guUNPeaDGUVd5PwyJXIpbD2bSotWovHbTZ51uOs
crWQ5ylviC6mj/+uleJX9yCIVUYEAn31H8iQEV76W0bwR3T3QgsALzZo5jqEX8P2
GVapzv32n9GjH4xmWvvL1sSNwwfHNmoNgQVGgqUsnIS5CD3N5RAJlWtcksqQvl9e
txpYm/j43iJEObq8pJT+Ibh4SnJmA1cETW+hSm0MkHW/6BDFU4hw/YMG2GotYjUD
XnPfBqDDx5QeXmHH7RkYuGlJHxo035P1YInz43oYb8xERSvq+C9S7kvTwQIDAQAB
o3sweTAJBgNVHRMEAjAAMCwGCWCGSAGG+EIBDQQfFh1PcGVuU1NMIEdlbmVyYXRl
ZCBDZXJ0aWZpY2F0ZTAdBgNVHQ4EFgQUo++IkjBjz3GUvo3hqOmL4l1J8JswHwYD
VR0jBBgwFoAUY+B1e1grW/AXmCYd2vi54DHA3wEwDQYJKoZIhvcNAQEFBQADggEB
AKCRqK2Ketp3k1srQk0WXKkHfZIy8bwuq9EFTrsJisJI0STsiaONXhXtyJ5EFT6e
5kJot9G1ihvHbiDMTllL753o6rAEGmDRdy5dU6PWYII5fp3pbZZByZ2ViePTamyk
VO1B31xL4NuFhu34oJShCJ/KQ0Vi68xb7CE8QzBHdwyq52tJIL8LujeTb8zV3Z+V
pkHgKjEe7yAhW7B8TAhDUKmSxCdzRRhuOjPvkfqueZahyaceKGU13HhBz+gJ8i0B
xgkfLzUT/ebj+L3OH6CvZrCf/w9Uicjty2B4kOsEQBNaE/h5h64IKvxRsDBk2RSP
TCvOaUL4XuF/2DqrRZYZbd4=
-----END CERTIFICATE-----
