Certificate:
    Data:
        Version: 3 (0x2)
        Serial Number: 1 (0x1)
        Signature Algorithm: sha1WithRSAEncryption
        Issuer: C=US, ST=NC, L=Raleigh, O=Fedora Project, OU=fedmsg, CN=fedmsg/name=fedmsg/emailAddress=admin@fedoraproject.org
        Validity
            Not Before: Jul 15 21:18:52 2012 GMT
            Not After : Jul 13 21:18:52 2022 GMT
        Subject: C=US, ST=NC, L=Raleigh, O=Fedora Project, OU=fedmsg, CN=fedmsg/name=fedmsg/emailAddress=admin@fedoraproject.org
        Subject Public Key Info:
            Public Key Algorithm: rsaEncryption
                Public-Key: (1024 bit)
                Modulus:
                    00:b1:a2:5c:d7:10:6a:83:a4:1d:65:66:51:80:f5:
                    72:2d:15:af:77:92:ad:1d:ad:80:d8:c8:e2:ee:cf:
                    10:3b:07:02:1e:4f:18:c4:47:d6:82:8d:53:ff:c2:
                    1b:72:49:fe:62:fe:68:26:f0:91:8f:d7:e0:9e:b8:
                    46:96:ef:ef:4b:07:f4:21:10:09:d9:90:92:a6:25:
                    3a:29:ca:b6:e8:69:06:df:ba:a7:73:b1:71:c3:6c:
                    1c:d3:7d:d6:ff:3a:ce:15:b7:bc:7b:fc:6c:6b:d6:
                    6f:a7:fd:e0:28:59:07:49:bf:66:9c:3e:1f:5f:b8:
                    85:c4:61:51:f9:67:00:40:a7
                Exponent: 65537 (0x10001)
        X509v3 extensions:
            X509v3 Basic Constraints: 
                CA:FALSE
            Netscape Cert Type: 
                SSL Server
            Netscape Comment: 
                Easy-RSA Generated Server Certificate
            X509v3 Subject Key Identifier: 
                50:DA:1E:62:70:71:C2:72:0D:67:F3:F1:24:A2:E2:9E:31:E1:A3:F0
            X509v3 Authority Key Identifier: 
                keyid:00:98:A5:D5:E7:C4:55:0E:84:A3:67:FE:66:4A:16:E0:04:15:DD:21
                DirName:/C=US/ST=NC/L=Raleigh/O=Fedora Project/OU=fedmsg/CN=fedmsg/name=fedmsg/emailAddress=admin@fedoraproject.org
                serial:8E:EB:28:D8:A9:13:9D:7C

            X509v3 Extended Key Usage: 
                TLS Web Server Authentication
            X509v3 Key Usage: 
                Digital Signature, Key Encipherment
    Signature Algorithm: sha1WithRSAEncryption
        e8:01:80:e4:eb:85:87:d5:be:94:80:e4:e5:d2:df:e8:c6:b5:
        38:1e:69:31:c0:73:1e:00:60:7b:f4:5f:5c:cb:68:d0:94:d0:
        bd:9c:ea:33:bd:a1:3a:83:cd:cf:29:57:8b:95:02:d5:bd:fb:
        fc:33:d8:a8:da:05:84:67:e2:f4:8b:ba:53:e3:e4:67:0d:52:
        c1:ce:9f:a9:63:ca:86:59:bd:fa:e7:9d:48:8f:b1:e1:fe:a0:
        a5:6b:0d:6f:03:9c:30:26:80:1b:90:30:e6:a2:ca:4c:29:1e:
        74:98:5d:cf:34:fb:d7:fa:7a:3a:af:51:96:87:02:dc:18:0a:
        fb:83
-----BEGIN CERTIFICATE-----
MIIEKzCCA5SgAwIBAgIBATANBgkqhkiG9w0BAQUFADCBoDELMAkGA1UEBhMCVVMx
CzAJBgNVBAgTAk5DMRAwDgYDVQQHEwdSYWxlaWdoMRcwFQYDVQQKEw5GZWRvcmEg
UHJvamVjdDEPMA0GA1UECxMGZmVkbXNnMQ8wDQYDVQQDEwZmZWRtc2cxDzANBgNV
BCkTBmZlZG1zZzEmMCQGCSqGSIb3DQEJARYXYWRtaW5AZmVkb3JhcHJvamVjdC5v
cmcwHhcNMTIwNzE1MjExODUyWhcNMjIwNzEzMjExODUyWjCBoDELMAkGA1UEBhMC
VVMxCzAJBgNVBAgTAk5DMRAwDgYDVQQHEwdSYWxlaWdoMRcwFQYDVQQKEw5GZWRv
cmEgUHJvamVjdDEPMA0GA1UECxMGZmVkbXNnMQ8wDQYDVQQDEwZmZWRtc2cxDzAN
BgNVBCkTBmZlZG1zZzEmMCQGCSqGSIb3DQEJARYXYWRtaW5AZmVkb3JhcHJvamVj
dC5vcmcwgZ8wDQYJKoZIhvcNAQEBBQADgY0AMIGJAoGBALGiXNcQaoOkHWVmUYD1
ci0Vr3eSrR2tgNjI4u7PEDsHAh5PGMRH1oKNU//CG3JJ/mL+aCbwkY/X4J64Rpbv
70sH9CEQCdmQkqYlOinKtuhpBt+6p3OxccNsHNN91v86zhW3vHv8bGvWb6f94ChZ
B0m/Zpw+H1+4hcRhUflnAECnAgMBAAGjggFxMIIBbTAJBgNVHRMEAjAAMBEGCWCG
SAGG+EIBAQQEAwIGQDA0BglghkgBhvhCAQ0EJxYlRWFzeS1SU0EgR2VuZXJhdGVk
IFNlcnZlciBDZXJ0aWZpY2F0ZTAdBgNVHQ4EFgQUUNoeYnBxwnINZ/PxJKLinjHh
o/AwgdUGA1UdIwSBzTCByoAUAJil1efEVQ6Eo2f+ZkoW4AQV3SGhgaakgaMwgaAx
CzAJBgNVBAYTAlVTMQswCQYDVQQIEwJOQzEQMA4GA1UEBxMHUmFsZWlnaDEXMBUG
A1UEChMORmVkb3JhIFByb2plY3QxDzANBgNVBAsTBmZlZG1zZzEPMA0GA1UEAxMG
ZmVkbXNnMQ8wDQYDVQQpEwZmZWRtc2cxJjAkBgkqhkiG9w0BCQEWF2FkbWluQGZl
ZG9yYXByb2plY3Qub3JnggkAjuso2KkTnXwwEwYDVR0lBAwwCgYIKwYBBQUHAwEw
CwYDVR0PBAQDAgWgMA0GCSqGSIb3DQEBBQUAA4GBAOgBgOTrhYfVvpSA5OXS3+jG
tTgeaTHAcx4AYHv0X1zLaNCU0L2c6jO9oTqDzc8pV4uVAtW9+/wz2KjaBYRn4vSL
ulPj5GcNUsHOn6ljyoZZvfrnnUiPseH+oKVrDW8DnDAmgBuQMOaiykwpHnSYXc80
+9f6ejqvUZaHAtwYCvuD
-----END CERTIFICATE-----
