Certificate:
    Data:
        Version: 3 (0x2)
        Serial Number: 1 (0x1)
        Signature Algorithm: sha256WithRSAEncryption
        Issuer: C=US, ST=NC, L=Raleigh, O=Fedora Project, OU=fedmsg, CN=fedmsg/name=fedmsg/emailAddress=admin@fedoraproject.org
        Validity
            Not Before: Feb 20 11:43:12 2023 GMT
            Not After : Feb 17 11:43:12 2033 GMT
        Subject: C=US, ST=NC, L=Raleigh, O=Fedora Project, OU=fedmsg, CN=fedmsg/name=fedmsg/emailAddress=admin@fedoraproject.org
        Subject Public Key Info:
            Public Key Algorithm: rsaEncryption
                Public-Key: (1024 bit)
                Modulus:
                    00:d2:c7:7a:10:ea:77:4b:3a:a7:f8:29:f9:f2:55:
                    61:2d:83:6a:8b:ed:22:09:83:34:2a:64:78:c3:04:
                    ff:ff:f9:17:86:61:71:6e:67:4b:a5:5a:f5:c4:31:
                    ce:9b:b5:eb:7f:f0:c2:95:d0:4e:df:40:02:b1:3b:
                    51:30:ea:c0:b1:fd:84:07:f8:55:97:2f:32:79:a3:
                    a5:83:8a:92:49:f6:22:78:52:04:8a:08:79:04:20:
                    65:15:e2:7c:17:63:5c:51:7a:a9:ef:0f:c7:2d:da:
                    81:b7:8f:3b:fd:88:4e:68:4e:e0:6b:35:4b:43:8a:
                    98:d6:12:74:c4:67:88:d3:89
                Exponent: 65537 (0x10001)
        X509v3 extensions:
            X509v3 Basic Constraints: 
                CA:FALSE
            Netscape Cert Type: 
                SSL Server
            Netscape Comment: 
                Easy-RSA Generated Server Certificate
            X509v3 Subject Key Identifier: 
                A3:19:30:D9:CC:BD:91:3A:8A:78:94:7C:FB:CF:A5:E6:FF:61:C6:E1
            X509v3 Authority Key Identifier: 
                keyid:85:3B:0B:B5:86:22:32:DD:BD:F8:E1:7C:89:C3:20:AD:CA:44:B5:38
                DirName:/C=US/ST=NC/L=Raleigh/O=Fedora Project/OU=fedmsg/CN=fedmsg/name=fedmsg/emailAddress=admin@fedoraproject.org
                serial:31:18:5F:9A:5C:BE:C6:64:1E:FD:20:B3:37:B2:B2:16:FB:E0:C0:F6
            X509v3 Extended Key Usage: 
                TLS Web Server Authentication
            X509v3 Key Usage: 
                Digital Signature, Key Encipherment
    Signature Algorithm: sha256WithRSAEncryption
    Signature Value:
        8f:fd:9a:13:c7:0c:9c:a9:1d:42:b0:72:ec:df:38:b0:04:b7:
        5f:c6:e2:80:d9:73:0f:6b:88:fc:67:63:5e:65:ed:d7:2c:ba:
        3f:a5:8f:c1:bd:19:29:f7:7b:c5:f0:70:37:52:10:cf:21:69:
        1b:d0:44:5b:a2:f0:14:18:3e:81:59:9a:8f:b0:e2:ad:bb:e2:
        cc:59:60:22:4a:9b:65:4b:09:43:88:1b:f0:a5:7b:c9:9a:20:
        81:04:92:82:b6:56:54:67:3b:bc:33:f1:d6:25:9e:4c:f8:a0:
        0a:94:fc:14:38:50:f7:4a:58:bd:00:b4:f1:bf:9c:f9:ca:dc:
        5f:c3
-----BEGIN CERTIFICATE-----
MIIENjCCA5+gAwIBAgIBATANBgkqhkiG9w0BAQsFADCBoDELMAkGA1UEBhMCVVMx
CzAJBgNVBAgTAk5DMRAwDgYDVQQHEwdSYWxlaWdoMRcwFQYDVQQKEw5GZWRvcmEg
UHJvamVjdDEPMA0GA1UECxMGZmVkbXNnMQ8wDQYDVQQDEwZmZWRtc2cxDzANBgNV
BCkTBmZlZG1zZzEmMCQGCSqGSIb3DQEJARYXYWRtaW5AZmVkb3JhcHJvamVjdC5v
cmcwHhcNMjMwMjIwMTE0MzEyWhcNMzMwMjE3MTE0MzEyWjCBoDELMAkGA1UEBhMC
VVMxCzAJBgNVBAgTAk5DMRAwDgYDVQQHEwdSYWxlaWdoMRcwFQYDVQQKEw5GZWRv
cmEgUHJvamVjdDEPMA0GA1UECxMGZmVkbXNnMQ8wDQYDVQQDEwZmZWRtc2cxDzAN
BgNVBCkTBmZlZG1zZzEmMCQGCSqGSIb3DQEJARYXYWRtaW5AZmVkb3JhcHJvamVj
dC5vcmcwgZ8wDQYJKoZIhvcNAQEBBQADgY0AMIGJAoGBANLHehDqd0s6p/gp+fJV
YS2DaovtIgmDNCpkeMME///5F4ZhcW5nS6Va9cQxzpu163/wwpXQTt9AArE7UTDq
wLH9hAf4VZcvMnmjpYOKkkn2InhSBIoIeQQgZRXifBdjXFF6qe8Pxy3agbePO/2I
TmhO4Gs1S0OKmNYSdMRniNOJAgMBAAGjggF8MIIBeDAJBgNVHRMEAjAAMBEGCWCG
SAGG+EIBAQQEAwIGQDA0BglghkgBhvhCAQ0EJxYlRWFzeS1SU0EgR2VuZXJhdGVk
IFNlcnZlciBDZXJ0aWZpY2F0ZTAdBgNVHQ4EFgQUoxkw2cy9kTqKeJR8+8+l5v9h
xuEwgeAGA1UdIwSB2DCB1YAUhTsLtYYiMt29+OF8icMgrcpEtTihgaakgaMwgaAx
CzAJBgNVBAYTAlVTMQswCQYDVQQIEwJOQzEQMA4GA1UEBxMHUmFsZWlnaDEXMBUG
A1UEChMORmVkb3JhIFByb2plY3QxDzANBgNVBAsTBmZlZG1zZzEPMA0GA1UEAxMG
ZmVkbXNnMQ8wDQYDVQQpEwZmZWRtc2cxJjAkBgkqhkiG9w0BCQEWF2FkbWluQGZl
ZG9yYXByb2plY3Qub3JnghQxGF+aXL7GZB79ILM3srIW++DA9jATBgNVHSUEDDAK
BggrBgEFBQcDATALBgNVHQ8EBAMCBaAwDQYJKoZIhvcNAQELBQADgYEAj/2aE8cM
nKkdQrBy7N84sAS3X8bigNlzD2uI/GdjXmXt1yy6P6WPwb0ZKfd7xfBwN1IQzyFp
G9BEW6LwFBg+gVmaj7DirbvizFlgIkqbZUsJQ4gb8KV7yZoggQSSgrZWVGc7vDPx
1iWeTPigCpT8FDhQ90pYvQC08b+c+crcX8M=
-----END CERTIFICATE-----
