Certificate:
    Data:
        Version: 3 (0x2)
        Serial Number: 2 (0x2)
        Signature Algorithm: sha1WithRSAEncryption
        Issuer: C=US, ST=NC, L=Raleigh, O=Fedora Project, OU=fedmsg, CN=fedmsg/name=fedmsg/emailAddress=admin@fedoraproject.org
        Validity
            Not Before: Jul 15 21:18:52 2012 GMT
            Not After : Jul 13 21:18:52 2022 GMT
        Subject: C=US, ST=NC, L=Raleigh, O=Fedora Project, OU=fedmsg, CN=dummy-revoked/name=dummy-revoked/emailAddress=admin@fedoraproject.org
        Subject Public Key Info:
            Public Key Algorithm: rsaEncryption
                Public-Key: (1024 bit)
                Modulus:
                    00:af:fa:8b:29:48:86:3c:1e:66:01:5d:f9:50:97:
                    0b:3a:31:f6:16:00:ab:9a:61:b6:36:19:3e:e3:7a:
                    75:36:da:d6:c4:70:41:31:03:9d:17:9d:8d:5d:fa:
                    c7:e6:06:2e:45:62:f0:82:72:10:98:a9:2b:2e:cb:
                    fb:4e:7a:cc:50:e5:5c:50:57:01:0c:41:66:07:b7:
                    06:6f:e4:0b:13:dd:b3:ce:d2:8c:2c:d9:c3:1d:a4:
                    22:51:ab:cd:47:7f:5b:35:32:b0:6f:45:01:f5:da:
                    78:8d:f9:7b:6f:c1:81:f1:a6:40:49:6e:26:c1:d7:
                    a8:bd:1e:fb:0c:60:11:df:8f
                Exponent: 65537 (0x10001)
        X509v3 extensions:
            X509v3 Basic Constraints: 
                CA:FALSE
            Netscape Comment: 
                Easy-RSA Generated Certificate
            X509v3 Subject Key Identifier: 
                2D:7E:F4:ED:38:1E:85:3B:D6:28:61:93:AE:D4:39:FC:44:21:72:ED
            X509v3 Authority Key Identifier: 
                keyid:00:98:A5:D5:E7:C4:55:0E:84:A3:67:FE:66:4A:16:E0:04:15:DD:21
                DirName:/C=US/ST=NC/L=Raleigh/O=Fedora Project/OU=fedmsg/CN=fedmsg/name=fedmsg/emailAddress=admin@fedoraproject.org
                serial:8E:EB:28:D8:A9:13:9D:7C

            X509v3 Extended Key Usage: 
                TLS Web Client Authentication
            X509v3 Key Usage: 
                Digital Signature
    Signature Algorithm: sha1WithRSAEncryption
        30:70:4e:0b:c2:3e:07:7f:a2:f7:cb:55:ac:a3:89:06:4f:cc:
        47:ff:a5:fa:6b:4f:9d:58:2b:72:3f:db:72:6b:7a:2f:dc:82:
        0f:a4:17:23:be:26:86:5e:3d:87:f6:1b:db:16:87:81:ae:08:
        c7:37:d7:0b:6b:7f:4f:b5:53:24:4d:0a:ab:53:1c:66:a7:92:
        c7:4a:8b:cd:8c:f0:c2:5f:78:d0:21:37:30:b7:02:e8:3d:03:
        10:e0:c4:7d:c5:f9:da:7f:23:66:e6:92:80:3b:63:73:c2:9e:
        90:89:c7:14:cc:6a:5c:b1:1b:df:ed:02:99:59:f2:6e:32:f4:
        d5:17
-----BEGIN CERTIFICATE-----
MIIEHzCCA4igAwIBAgIBAjANBgkqhkiG9w0BAQUFADCBoDELMAkGA1UEBhMCVVMx
CzAJBgNVBAgTAk5DMRAwDgYDVQQHEwdSYWxlaWdoMRcwFQYDVQQKEw5GZWRvcmEg
UHJvamVjdDEPMA0GA1UECxMGZmVkbXNnMQ8wDQYDVQQDEwZmZWRtc2cxDzANBgNV
BCkTBmZlZG1zZzEmMCQGCSqGSIb3DQEJARYXYWRtaW5AZmVkb3JhcHJvamVjdC5v
cmcwHhcNMTIwNzE1MjExODUyWhcNMjIwNzEzMjExODUyWjCBrjELMAkGA1UEBhMC
VVMxCzAJBgNVBAgTAk5DMRAwDgYDVQQHEwdSYWxlaWdoMRcwFQYDVQQKEw5GZWRv
cmEgUHJvamVjdDEPMA0GA1UECxMGZmVkbXNnMRYwFAYDVQQDEw1kdW1teS1yZXZv
a2VkMRYwFAYDVQQpEw1kdW1teS1yZXZva2VkMSYwJAYJKoZIhvcNAQkBFhdhZG1p
bkBmZWRvcmFwcm9qZWN0Lm9yZzCBnzANBgkqhkiG9w0BAQEFAAOBjQAwgYkCgYEA
r/qLKUiGPB5mAV35UJcLOjH2FgCrmmG2Nhk+43p1NtrWxHBBMQOdF52NXfrH5gYu
RWLwgnIQmKkrLsv7TnrMUOVcUFcBDEFmB7cGb+QLE92zztKMLNnDHaQiUavNR39b
NTKwb0UB9dp4jfl7b8GB8aZASW4mwdeovR77DGAR348CAwEAAaOCAVcwggFTMAkG
A1UdEwQCMAAwLQYJYIZIAYb4QgENBCAWHkVhc3ktUlNBIEdlbmVyYXRlZCBDZXJ0
aWZpY2F0ZTAdBgNVHQ4EFgQULX707TgehTvWKGGTrtQ5/EQhcu0wgdUGA1UdIwSB
zTCByoAUAJil1efEVQ6Eo2f+ZkoW4AQV3SGhgaakgaMwgaAxCzAJBgNVBAYTAlVT
MQswCQYDVQQIEwJOQzEQMA4GA1UEBxMHUmFsZWlnaDEXMBUGA1UEChMORmVkb3Jh
IFByb2plY3QxDzANBgNVBAsTBmZlZG1zZzEPMA0GA1UEAxMGZmVkbXNnMQ8wDQYD
VQQpEwZmZWRtc2cxJjAkBgkqhkiG9w0BCQEWF2FkbWluQGZlZG9yYXByb2plY3Qu
b3JnggkAjuso2KkTnXwwEwYDVR0lBAwwCgYIKwYBBQUHAwIwCwYDVR0PBAQDAgeA
MA0GCSqGSIb3DQEBBQUAA4GBADBwTgvCPgd/ovfLVayjiQZPzEf/pfprT51YK3I/
23Jrei/cgg+kFyO+JoZePYf2G9sWh4GuCMc31wtrf0+1UyRNCqtTHGanksdKi82M
8MJfeNAhNzC3Aug9AxDgxH3F+dp/I2bmkoA7Y3PCnpCJxxTMalyxG9/tAplZ8m4y
9NUX
-----END CERTIFICATE-----
