Certificate:
    Data:
        Version: 3 (0x2)
        Serial Number: 4 (0x4)
        Signature Algorithm: sha1WithRSAEncryption
        Issuer: C=US, ST=NC, L=Raleigh, O=Fedora Project, OU=fedmsg, CN=fedmsg/name=fedmsg/emailAddress=admin@fedoraproject.org
        Validity
            Not Before: Jul 15 21:18:52 2012 GMT
            Not After : Jul 13 21:18:52 2022 GMT
        Subject: C=US, ST=NC, L=Raleigh, O=Fedora Project, OU=fedmsg, CN=shell-app02.phx2.fedoraproject.org/name=shell-app02.phx2.fedoraproject.org/emailAddress=admin@fedoraproject.org
        Subject Public Key Info:
            Public Key Algorithm: rsaEncryption
                Public-Key: (1024 bit)
                Modulus:
                    00:ac:a0:3c:f8:e5:f7:d7:53:87:11:44:26:fb:e6:
                    e3:d2:eb:cc:7d:a7:86:bd:29:b9:a8:e4:6f:bf:e9:
                    a4:4f:aa:d5:3f:01:4f:90:b7:1b:a2:a1:ad:0b:43:
                    48:90:24:6b:42:33:af:ae:9c:4f:6a:a9:98:b6:e5:
                    5d:0d:99:c8:df:d7:3e:8c:02:aa:b5:5a:d2:38:2b:
                    5a:97:00:c2:b7:e7:85:ec:0c:61:1d:d0:69:3e:b3:
                    bc:69:f4:11:d7:7e:65:47:b4:08:36:51:0e:8f:ac:
                    91:9c:38:81:3a:b1:2c:f9:d9:1f:4a:12:2a:46:9d:
                    e3:3b:a1:c4:30:bc:57:cd:bf
                Exponent: 65537 (0x10001)
        X509v3 extensions:
            X509v3 Basic Constraints: 
                CA:FALSE
            Netscape Comment: 
                Easy-RSA Generated Certificate
            X509v3 Subject Key Identifier: 
                A0:9C:FA:C6:03:D5:A1:F5:76:BA:2D:74:EF:1D:32:6C:51:77:CB:54
            X509v3 Authority Key Identifier: 
                keyid:00:98:A5:D5:E7:C4:55:0E:84:A3:67:FE:66:4A:16:E0:04:15:DD:21
                DirName:/C=US/ST=NC/L=Raleigh/O=Fedora Project/OU=fedmsg/CN=fedmsg/name=fedmsg/emailAddress=admin@fedoraproject.org
                serial:8E:EB:28:D8:A9:13:9D:7C

            X509v3 Extended Key Usage: 
                TLS Web Client Authentication
            X509v3 Key Usage: 
                Digital Signature
    Signature Algorithm: sha1WithRSAEncryption
        66:e6:c2:3e:d8:61:c8:17:ac:90:64:8d:5c:98:87:ac:ba:4c:
        6d:e9:f5:36:6e:6c:a1:88:b0:91:db:f0:f7:a6:4a:b8:3a:cd:
        00:c9:02:d6:e3:f6:98:d6:95:e4:a9:95:27:6f:7a:50:e6:3f:
        5a:4b:4e:3d:b1:56:eb:c8:a9:09:81:9a:61:73:67:ab:d1:3c:
        86:22:31:e9:1d:28:87:90:c8:d4:9f:93:e1:07:de:17:ef:54:
        4b:70:73:4a:94:91:9e:0b:b7:41:86:25:8e:bb:13:d3:d8:03:
        e3:a5:71:b3:eb:27:cc:2b:52:12:b0:a5:46:27:01:58:49:b0:
        77:17
-----BEGIN CERTIFICATE-----
MIIESTCCA7KgAwIBAgIBBDANBgkqhkiG9w0BAQUFADCBoDELMAkGA1UEBhMCVVMx
CzAJBgNVBAgTAk5DMRAwDgYDVQQHEwdSYWxlaWdoMRcwFQYDVQQKEw5GZWRvcmEg
UHJvamVjdDEPMA0GA1UECxMGZmVkbXNnMQ8wDQYDVQQDEwZmZWRtc2cxDzANBgNV
BCkTBmZlZG1zZzEmMCQGCSqGSIb3DQEJARYXYWRtaW5AZmVkb3JhcHJvamVjdC5v
cmcwHhcNMTIwNzE1MjExODUyWhcNMjIwNzEzMjExODUyWjCB2DELMAkGA1UEBhMC
VVMxCzAJBgNVBAgTAk5DMRAwDgYDVQQHEwdSYWxlaWdoMRcwFQYDVQQKEw5GZWRv
cmEgUHJvamVjdDEPMA0GA1UECxMGZmVkbXNnMSswKQYDVQQDEyJzaGVsbC1hcHAw
Mi5waHgyLmZlZG9yYXByb2plY3Qub3JnMSswKQYDVQQpEyJzaGVsbC1hcHAwMi5w
aHgyLmZlZG9yYXByb2plY3Qub3JnMSYwJAYJKoZIhvcNAQkBFhdhZG1pbkBmZWRv
cmFwcm9qZWN0Lm9yZzCBnzANBgkqhkiG9w0BAQEFAAOBjQAwgYkCgYEArKA8+OX3
11OHEUQm++bj0uvMfaeGvSm5qORvv+mkT6rVPwFPkLcboqGtC0NIkCRrQjOvrpxP
aqmYtuVdDZnI39c+jAKqtVrSOCtalwDCt+eF7AxhHdBpPrO8afQR135lR7QINlEO
j6yRnDiBOrEs+dkfShIqRp3jO6HEMLxXzb8CAwEAAaOCAVcwggFTMAkGA1UdEwQC
MAAwLQYJYIZIAYb4QgENBCAWHkVhc3ktUlNBIEdlbmVyYXRlZCBDZXJ0aWZpY2F0
ZTAdBgNVHQ4EFgQUoJz6xgPVofV2ui107x0ybFF3y1QwgdUGA1UdIwSBzTCByoAU
AJil1efEVQ6Eo2f+ZkoW4AQV3SGhgaakgaMwgaAxCzAJBgNVBAYTAlVTMQswCQYD
VQQIEwJOQzEQMA4GA1UEBxMHUmFsZWlnaDEXMBUGA1UEChMORmVkb3JhIFByb2pl
Y3QxDzANBgNVBAsTBmZlZG1zZzEPMA0GA1UEAxMGZmVkbXNnMQ8wDQYDVQQpEwZm
ZWRtc2cxJjAkBgkqhkiG9w0BCQEWF2FkbWluQGZlZG9yYXByb2plY3Qub3JnggkA
juso2KkTnXwwEwYDVR0lBAwwCgYIKwYBBQUHAwIwCwYDVR0PBAQDAgeAMA0GCSqG
SIb3DQEBBQUAA4GBAGbmwj7YYcgXrJBkjVyYh6y6TG3p9TZubKGIsJHb8PemSrg6
zQDJAtbj9pjWleSplSdvelDmP1pLTj2xVuvIqQmBmmFzZ6vRPIYiMekdKIeQyNSf
k+EH3hfvVEtwc0qUkZ4Lt0GGJY67E9PYA+OlcbPrJ8wrUhKwpUYnAVhJsHcX
-----END CERTIFICATE-----
