Certificate:
    Data:
        Version: 3 (0x2)
        Serial Number: 5 (0x5)
        Signature Algorithm: sha1WithRSAEncryption
        Issuer: C=US, ST=NC, L=Raleigh, O=Fedora Project, OU=fedmsg, CN=fedmsg/name=fedmsg/emailAddress=admin@fedoraproject.org
        Validity
            Not Before: Jul 15 21:18:52 2012 GMT
            Not After : Jul 13 21:18:52 2022 GMT
        Subject: C=US, ST=NC, L=Raleigh, O=Fedora Project, OU=fedmsg, CN=shell-app03.phx2.fedoraproject.org/name=shell-app03.phx2.fedoraproject.org/emailAddress=admin@fedoraproject.org
        Subject Public Key Info:
            Public Key Algorithm: rsaEncryption
                Public-Key: (1024 bit)
                Modulus:
                    00:bc:36:a9:25:04:96:6a:eb:80:5e:e3:9d:a5:45:
                    a0:56:88:51:4c:61:bf:89:7a:d8:50:8a:76:51:1f:
                    bb:11:b9:df:93:e9:bc:63:a7:0a:eb:9a:de:70:f2:
                    97:13:74:6d:ac:fe:b7:a1:3d:23:a1:b7:e7:e4:01:
                    59:f4:6a:de:d1:58:aa:0f:c9:1b:39:17:5a:e4:c3:
                    28:e4:1a:d7:3e:60:0d:4d:aa:13:b8:52:3a:7d:d8:
                    c9:31:95:45:aa:f4:13:c1:e1:f5:f6:30:91:87:25:
                    6d:84:69:88:c1:74:69:8b:5a:f2:6f:16:2c:bf:d5:
                    be:4a:18:29:54:c5:a7:fb:83
                Exponent: 65537 (0x10001)
        X509v3 extensions:
            X509v3 Basic Constraints: 
                CA:FALSE
            Netscape Comment: 
                Easy-RSA Generated Certificate
            X509v3 Subject Key Identifier: 
                C2:A3:12:85:02:0D:63:6B:D3:0D:51:EC:62:15:BE:C0:C3:BF:1A:16
            X509v3 Authority Key Identifier: 
                keyid:00:98:A5:D5:E7:C4:55:0E:84:A3:67:FE:66:4A:16:E0:04:15:DD:21
                DirName:/C=US/ST=NC/L=Raleigh/O=Fedora Project/OU=fedmsg/CN=fedmsg/name=fedmsg/emailAddress=admin@fedoraproject.org
                serial:8E:EB:28:D8:A9:13:9D:7C

            X509v3 Extended Key Usage: 
                TLS Web Client Authentication
            X509v3 Key Usage: 
                Digital Signature
    Signature Algorithm: sha1WithRSAEncryption
        c9:bf:d7:b4:95:1a:12:93:f5:d8:5b:c7:76:fa:b8:48:9d:51:
        49:30:22:e7:28:2f:b3:75:de:af:90:02:d7:61:62:be:b0:26:
        15:54:a1:1f:41:ee:e2:b0:e5:f5:ba:18:bb:eb:e1:d6:c6:c1:
        48:b0:b5:7c:9c:e6:72:91:c6:81:48:91:06:e0:c7:61:e9:15:
        a1:a7:7b:23:31:7c:4c:12:4c:31:3c:6a:01:ec:78:f7:db:f8:
        b6:d6:31:b6:d5:92:23:e1:11:fc:12:18:0e:ae:fb:3a:b8:c1:
        56:c6:51:5a:54:35:85:b8:84:b7:93:c7:95:fb:44:a3:bf:0f:
        f2:01
-----BEGIN CERTIFICATE-----
MIIESTCCA7KgAwIBAgIBBTANBgkqhkiG9w0BAQUFADCBoDELMAkGA1UEBhMCVVMx
CzAJBgNVBAgTAk5DMRAwDgYDVQQHEwdSYWxlaWdoMRcwFQYDVQQKEw5GZWRvcmEg
UHJvamVjdDEPMA0GA1UECxMGZmVkbXNnMQ8wDQYDVQQDEwZmZWRtc2cxDzANBgNV
BCkTBmZlZG1zZzEmMCQGCSqGSIb3DQEJARYXYWRtaW5AZmVkb3JhcHJvamVjdC5v
cmcwHhcNMTIwNzE1MjExODUyWhcNMjIwNzEzMjExODUyWjCB2DELMAkGA1UEBhMC
VVMxCzAJBgNVBAgTAk5DMRAwDgYDVQQHEwdSYWxlaWdoMRcwFQYDVQQKEw5GZWRv
cmEgUHJvamVjdDEPMA0GA1UECxMGZmVkbXNnMSswKQYDVQQDEyJzaGVsbC1hcHAw
My5waHgyLmZlZG9yYXByb2plY3Qub3JnMSswKQYDVQQpEyJzaGVsbC1hcHAwMy5w
aHgyLmZlZG9yYXByb2plY3Qub3JnMSYwJAYJKoZIhvcNAQkBFhdhZG1pbkBmZWRv
cmFwcm9qZWN0Lm9yZzCBnzANBgkqhkiG9w0BAQEFAAOBjQAwgYkCgYEAvDapJQSW
auuAXuOdpUWgVohRTGG/iXrYUIp2UR+7Ebnfk+m8Y6cK65recPKXE3RtrP63oT0j
obfn5AFZ9Gre0ViqD8kbORda5MMo5BrXPmANTaoTuFI6fdjJMZVFqvQTweH19jCR
hyVthGmIwXRpi1rybxYsv9W+ShgpVMWn+4MCAwEAAaOCAVcwggFTMAkGA1UdEwQC
MAAwLQYJYIZIAYb4QgENBCAWHkVhc3ktUlNBIEdlbmVyYXRlZCBDZXJ0aWZpY2F0
ZTAdBgNVHQ4EFgQUwqMShQINY2vTDVHsYhW+wMO/GhYwgdUGA1UdIwSBzTCByoAU
AJil1efEVQ6Eo2f+ZkoW4AQV3SGhgaakgaMwgaAxCzAJBgNVBAYTAlVTMQswCQYD
VQQIEwJOQzEQMA4GA1UEBxMHUmFsZWlnaDEXMBUGA1UEChMORmVkb3JhIFByb2pl
Y3QxDzANBgNVBAsTBmZlZG1zZzEPMA0GA1UEAxMGZmVkbXNnMQ8wDQYDVQQpEwZm
ZWRtc2cxJjAkBgkqhkiG9w0BCQEWF2FkbWluQGZlZG9yYXByb2plY3Qub3JnggkA
juso2KkTnXwwEwYDVR0lBAwwCgYIKwYBBQUHAwIwCwYDVR0PBAQDAgeAMA0GCSqG
SIb3DQEBBQUAA4GBAMm/17SVGhKT9dhbx3b6uEidUUkwIucoL7N13q+QAtdhYr6w
JhVUoR9B7uKw5fW6GLvr4dbGwUiwtXyc5nKRxoFIkQbgx2HpFaGneyMxfEwSTDE8
agHsePfb+LbWMbbVkiPhEfwSGA6u+zq4wVbGUVpUNYW4hLeTx5X7RKO/D/IB
-----END CERTIFICATE-----
