Certificate:
    Data:
        Version: 3 (0x2)
        Serial Number: 5 (0x5)
        Signature Algorithm: sha256WithRSAEncryption
        Issuer: C=US, ST=NC, L=Raleigh, O=Fedora Project, OU=fedmsg, CN=fedmsg/name=fedmsg/emailAddress=admin@fedoraproject.org
        Validity
            Not Before: Feb 20 11:43:12 2023 GMT
            Not After : Feb 17 11:43:12 2033 GMT
        Subject: C=US, ST=NC, L=Raleigh, O=Fedora Project, OU=fedmsg, CN=shell-app03.phx2.fedoraproject.org/name=shell-app03.phx2.fedoraproject.org/emailAddress=admin@fedoraproject.org
        Subject Public Key Info:
            Public Key Algorithm: rsaEncryption
                Public-Key: (1024 bit)
                Modulus:
                    00:bd:61:a5:59:0c:3a:f5:b7:5e:ee:98:3f:a8:ef:
                    c0:85:80:de:fe:b1:f4:d8:ec:6f:06:32:c2:4a:0b:
                    8c:c9:36:16:bb:17:44:0c:35:2f:00:73:8a:4a:22:
                    eb:ea:d0:c3:b3:10:70:dc:86:ba:a8:49:10:e7:e6:
                    0b:44:0f:c5:91:3d:a5:00:82:6b:bf:02:62:24:58:
                    fc:76:80:7e:4d:cc:1b:22:77:50:93:03:fd:c3:92:
                    57:b0:22:27:7c:d6:c4:ea:5e:b2:46:6e:be:12:21:
                    62:04:dc:c3:ed:2d:13:9a:be:fa:09:db:ae:af:86:
                    c5:d1:0c:33:28:62:9b:f8:9b
                Exponent: 65537 (0x10001)
        X509v3 extensions:
            X509v3 Basic Constraints: 
                CA:FALSE
            Netscape Comment: 
                Easy-RSA Generated Certificate
            X509v3 Subject Key Identifier: 
                18:59:A1:20:99:D1:D1:AC:8F:56:E9:F6:3F:4E:1F:1D:37:7B:B5:85
            X509v3 Authority Key Identifier: 
                keyid:85:3B:0B:B5:86:22:32:DD:BD:F8:E1:7C:89:C3:20:AD:CA:44:B5:38
                DirName:/C=US/ST=NC/L=Raleigh/O=Fedora Project/OU=fedmsg/CN=fedmsg/name=fedmsg/emailAddress=admin@fedoraproject.org
                serial:31:18:5F:9A:5C:BE:C6:64:1E:FD:20:B3:37:B2:B2:16:FB:E0:C0:F6
            X509v3 Extended Key Usage: 
                TLS Web Client Authentication
            X509v3 Key Usage: 
                Digital Signature
    Signature Algorithm: sha256WithRSAEncryption
    Signature Value:
        24:1b:e0:be:8e:b5:8f:b0:39:4e:4d:ce:0e:89:8b:32:bd:f9:
        01:d7:c3:2e:25:2f:4b:ce:fd:6e:41:1b:04:e9:69:f3:8a:60:
        80:c0:be:30:12:2f:48:b5:b6:ff:9c:5c:c1:a6:36:55:9d:09:
        18:03:13:bb:f0:27:f9:70:27:aa:b8:c0:88:08:3a:f7:d8:12:
        25:74:16:1d:68:52:9b:57:b7:98:5a:59:ba:f2:77:2a:51:7c:
        2d:8c:7f:62:a1:6b:c9:db:8f:31:87:5e:a8:5e:9e:bb:6b:aa:
        d1:19:be:65:81:18:af:7e:d5:84:80:75:36:6d:ad:1c:72:95:
        30:00
-----BEGIN CERTIFICATE-----
MIIEVDCCA72gAwIBAgIBBTANBgkqhkiG9w0BAQsFADCBoDELMAkGA1UEBhMCVVMx
CzAJBgNVBAgTAk5DMRAwDgYDVQQHEwdSYWxlaWdoMRcwFQYDVQQKEw5GZWRvcmEg
UHJvamVjdDEPMA0GA1UECxMGZmVkbXNnMQ8wDQYDVQQDEwZmZWRtc2cxDzANBgNV
BCkTBmZlZG1zZzEmMCQGCSqGSIb3DQEJARYXYWRtaW5AZmVkb3JhcHJvamVjdC5v
cmcwHhcNMjMwMjIwMTE0MzEyWhcNMzMwMjE3MTE0MzEyWjCB2DELMAkGA1UEBhMC
VVMxCzAJBgNVBAgTAk5DMRAwDgYDVQQHEwdSYWxlaWdoMRcwFQYDVQQKEw5GZWRv
cmEgUHJvamVjdDEPMA0GA1UECxMGZmVkbXNnMSswKQYDVQQDEyJzaGVsbC1hcHAw
My5waHgyLmZlZG9yYXByb2plY3Qub3JnMSswKQYDVQQpEyJzaGVsbC1hcHAwMy5w
aHgyLmZlZG9yYXByb2plY3Qub3JnMSYwJAYJKoZIhvcNAQkBFhdhZG1pbkBmZWRv
cmFwcm9qZWN0Lm9yZzCBnzANBgkqhkiG9w0BAQEFAAOBjQAwgYkCgYEAvWGlWQw6
9bde7pg/qO/AhYDe/rH02OxvBjLCSguMyTYWuxdEDDUvAHOKSiLr6tDDsxBw3Ia6
qEkQ5+YLRA/FkT2lAIJrvwJiJFj8doB+TcwbIndQkwP9w5JXsCInfNbE6l6yRm6+
EiFiBNzD7S0Tmr76Cduur4bF0QwzKGKb+JsCAwEAAaOCAWIwggFeMAkGA1UdEwQC
MAAwLQYJYIZIAYb4QgENBCAWHkVhc3ktUlNBIEdlbmVyYXRlZCBDZXJ0aWZpY2F0
ZTAdBgNVHQ4EFgQUGFmhIJnR0ayPVun2P04fHTd7tYUwgeAGA1UdIwSB2DCB1YAU
hTsLtYYiMt29+OF8icMgrcpEtTihgaakgaMwgaAxCzAJBgNVBAYTAlVTMQswCQYD
VQQIEwJOQzEQMA4GA1UEBxMHUmFsZWlnaDEXMBUGA1UEChMORmVkb3JhIFByb2pl
Y3QxDzANBgNVBAsTBmZlZG1zZzEPMA0GA1UEAxMGZmVkbXNnMQ8wDQYDVQQpEwZm
ZWRtc2cxJjAkBgkqhkiG9w0BCQEWF2FkbWluQGZlZG9yYXByb2plY3Qub3JnghQx
GF+aXL7GZB79ILM3srIW++DA9jATBgNVHSUEDDAKBggrBgEFBQcDAjALBgNVHQ8E
BAMCB4AwDQYJKoZIhvcNAQELBQADgYEAJBvgvo61j7A5Tk3ODomLMr35AdfDLiUv
S879bkEbBOlp84pggMC+MBIvSLW2/5xcwaY2VZ0JGAMTu/An+XAnqrjAiAg699gS
JXQWHWhSm1e3mFpZuvJ3KlF8LYx/YqFryduPMYdeqF6eu2uq0Rm+ZYEYr37VhIB1
Nm2tHHKVMAA=
-----END CERTIFICATE-----
