Certificate:
    Data:
        Version: 3 (0x2)
        Serial Number: 7 (0x7)
        Signature Algorithm: sha256WithRSAEncryption
        Issuer: C=US, ST=NC, L=Raleigh, O=Fedora Project, OU=fedmsg, CN=fedmsg/name=fedmsg/emailAddress=admin@fedoraproject.org
        Validity
            Not Before: Feb 20 11:43:12 2023 GMT
            Not After : Feb 17 11:43:12 2033 GMT
        Subject: C=US, ST=NC, L=Raleigh, O=Fedora Project, OU=fedmsg, CN=shell-app05.phx2.fedoraproject.org/name=shell-app05.phx2.fedoraproject.org/emailAddress=admin@fedoraproject.org
        Subject Public Key Info:
            Public Key Algorithm: rsaEncryption
                Public-Key: (1024 bit)
                Modulus:
                    00:e5:98:ed:0e:db:0a:fc:44:46:9d:5c:1b:a0:ef:
                    78:5c:f9:20:1c:d4:aa:25:5f:5c:97:00:60:80:2e:
                    3e:a7:a4:12:47:d7:6b:86:b8:08:51:29:9f:4b:67:
                    36:f6:48:11:f5:d9:77:32:fb:07:46:34:9a:65:7d:
                    a6:53:b8:5b:8e:2f:e2:5d:ea:4f:73:5d:dd:0a:c7:
                    ee:ee:88:3d:47:00:4b:a4:3f:8f:f2:1d:c3:f5:60:
                    99:85:d2:54:20:32:98:63:7e:cb:1f:10:3f:25:05:
                    09:1a:bd:b4:53:61:4e:78:68:82:75:39:a3:13:d4:
                    30:b7:de:fc:b8:e1:b3:c1:37
                Exponent: 65537 (0x10001)
        X509v3 extensions:
            X509v3 Basic Constraints: 
                CA:FALSE
            Netscape Comment: 
                Easy-RSA Generated Certificate
            X509v3 Subject Key Identifier: 
                3E:E1:89:70:63:17:CC:0E:64:47:88:8A:DA:B9:1F:31:00:57:F0:EF
            X509v3 Authority Key Identifier: 
                keyid:85:3B:0B:B5:86:22:32:DD:BD:F8:E1:7C:89:C3:20:AD:CA:44:B5:38
                DirName:/C=US/ST=NC/L=Raleigh/O=Fedora Project/OU=fedmsg/CN=fedmsg/name=fedmsg/emailAddress=admin@fedoraproject.org
                serial:31:18:5F:9A:5C:BE:C6:64:1E:FD:20:B3:37:B2:B2:16:FB:E0:C0:F6
            X509v3 Extended Key Usage: 
                TLS Web Client Authentication
            X509v3 Key Usage: 
                Digital Signature
    Signature Algorithm: sha256WithRSAEncryption
    Signature Value:
        12:78:26:d7:f4:00:3b:dc:c8:58:a1:9d:ff:e7:e9:3d:75:eb:
        dd:b0:5e:0e:83:d0:e6:02:e7:f7:71:46:ca:e4:7c:6a:ce:85:
        ba:b6:64:03:b0:77:30:ef:50:71:03:e0:fe:2a:ad:a8:98:fb:
        74:1f:c9:eb:22:c9:c2:2d:6b:9a:64:e6:eb:e3:0b:7c:23:e1:
        86:4d:eb:16:b4:fb:84:18:ad:03:0b:2b:39:fe:fd:70:e5:56:
        14:24:9f:6b:df:6e:a2:47:6f:83:77:a7:04:a0:97:d7:e0:50:
        4d:4e:8a:2b:61:3a:38:67:29:6e:d3:b6:da:fb:0a:29:44:3a:
        bf:b7
-----BEGIN CERTIFICATE-----
MIIEVDCCA72gAwIBAgIBBzANBgkqhkiG9w0BAQsFADCBoDELMAkGA1UEBhMCVVMx
CzAJBgNVBAgTAk5DMRAwDgYDVQQHEwdSYWxlaWdoMRcwFQYDVQQKEw5GZWRvcmEg
UHJvamVjdDEPMA0GA1UECxMGZmVkbXNnMQ8wDQYDVQQDEwZmZWRtc2cxDzANBgNV
BCkTBmZlZG1zZzEmMCQGCSqGSIb3DQEJARYXYWRtaW5AZmVkb3JhcHJvamVjdC5v
cmcwHhcNMjMwMjIwMTE0MzEyWhcNMzMwMjE3MTE0MzEyWjCB2DELMAkGA1UEBhMC
VVMxCzAJBgNVBAgTAk5DMRAwDgYDVQQHEwdSYWxlaWdoMRcwFQYDVQQKEw5GZWRv
cmEgUHJvamVjdDEPMA0GA1UECxMGZmVkbXNnMSswKQYDVQQDEyJzaGVsbC1hcHAw
NS5waHgyLmZlZG9yYXByb2plY3Qub3JnMSswKQYDVQQpEyJzaGVsbC1hcHAwNS5w
aHgyLmZlZG9yYXByb2plY3Qub3JnMSYwJAYJKoZIhvcNAQkBFhdhZG1pbkBmZWRv
cmFwcm9qZWN0Lm9yZzCBnzANBgkqhkiG9w0BAQEFAAOBjQAwgYkCgYEA5ZjtDtsK
/ERGnVwboO94XPkgHNSqJV9clwBggC4+p6QSR9drhrgIUSmfS2c29kgR9dl3MvsH
RjSaZX2mU7hbji/iXepPc13dCsfu7og9RwBLpD+P8h3D9WCZhdJUIDKYY37LHxA/
JQUJGr20U2FOeGiCdTmjE9Qwt978uOGzwTcCAwEAAaOCAWIwggFeMAkGA1UdEwQC
MAAwLQYJYIZIAYb4QgENBCAWHkVhc3ktUlNBIEdlbmVyYXRlZCBDZXJ0aWZpY2F0
ZTAdBgNVHQ4EFgQUPuGJcGMXzA5kR4iK2rkfMQBX8O8wgeAGA1UdIwSB2DCB1YAU
hTsLtYYiMt29+OF8icMgrcpEtTihgaakgaMwgaAxCzAJBgNVBAYTAlVTMQswCQYD
VQQIEwJOQzEQMA4GA1UEBxMHUmFsZWlnaDEXMBUGA1UEChMORmVkb3JhIFByb2pl
Y3QxDzANBgNVBAsTBmZlZG1zZzEPMA0GA1UEAxMGZmVkbXNnMQ8wDQYDVQQpEwZm
ZWRtc2cxJjAkBgkqhkiG9w0BCQEWF2FkbWluQGZlZG9yYXByb2plY3Qub3JnghQx
GF+aXL7GZB79ILM3srIW++DA9jATBgNVHSUEDDAKBggrBgEFBQcDAjALBgNVHQ8E
BAMCB4AwDQYJKoZIhvcNAQELBQADgYEAEngm1/QAO9zIWKGd/+fpPXXr3bBeDoPQ
5gLn93FGyuR8as6FurZkA7B3MO9QcQPg/iqtqJj7dB/J6yLJwi1rmmTm6+MLfCPh
hk3rFrT7hBitAwsrOf79cOVWFCSfa99uokdvg3enBKCX1+BQTU6KK2E6OGcpbtO2
2vsKKUQ6v7c=
-----END CERTIFICATE-----
