Certificate:
    Data:
        Version: 3 (0x2)
        Serial Number: 9 (0x9)
        Signature Algorithm: sha1WithRSAEncryption
        Issuer: C=US, ST=NC, L=Raleigh, O=Fedora Project, OU=fedmsg, CN=fedmsg/name=fedmsg/emailAddress=admin@fedoraproject.org
        Validity
            Not Before: Jul 15 21:18:52 2012 GMT
            Not After : Jul 13 21:18:52 2022 GMT
        Subject: C=US, ST=NC, L=Raleigh, O=Fedora Project, OU=fedmsg, CN=shell-app07.phx2.fedoraproject.org/name=shell-app07.phx2.fedoraproject.org/emailAddress=admin@fedoraproject.org
        Subject Public Key Info:
            Public Key Algorithm: rsaEncryption
                Public-Key: (1024 bit)
                Modulus:
                    00:c5:ad:18:17:6a:54:2a:15:7e:b0:4e:7c:e0:62:
                    13:ed:f6:5a:be:3e:27:a0:92:7e:23:d3:61:40:51:
                    7b:91:79:94:bd:7a:78:f0:10:30:98:d4:5f:38:77:
                    05:9d:b9:57:58:89:bc:72:e6:6d:55:a8:a3:01:43:
                    7b:45:62:9a:54:ef:4f:1c:c3:80:6c:c0:6c:95:87:
                    67:28:49:77:d1:bf:64:04:2a:14:88:c8:12:9b:7f:
                    cd:41:0b:39:79:be:06:59:1e:3a:7c:6d:4f:81:9e:
                    21:6b:a6:be:cd:91:94:e7:da:d2:e8:eb:f6:37:d4:
                    ff:94:fb:5b:5c:3e:55:7d:3d
                Exponent: 65537 (0x10001)
        X509v3 extensions:
            X509v3 Basic Constraints: 
                CA:FALSE
            Netscape Comment: 
                Easy-RSA Generated Certificate
            X509v3 Subject Key Identifier: 
                F5:F5:64:4B:7F:89:86:9C:2A:28:5A:36:B4:C3:CB:55:87:B2:C4:C8
            X509v3 Authority Key Identifier: 
                keyid:00:98:A5:D5:E7:C4:55:0E:84:A3:67:FE:66:4A:16:E0:04:15:DD:21
                DirName:/C=US/ST=NC/L=Raleigh/O=Fedora Project/OU=fedmsg/CN=fedmsg/name=fedmsg/emailAddress=admin@fedoraproject.org
                serial:8E:EB:28:D8:A9:13:9D:7C

            X509v3 Extended Key Usage: 
                TLS Web Client Authentication
            X509v3 Key Usage: 
                Digital Signature
    Signature Algorithm: sha1WithRSAEncryption
        e4:cd:1f:e4:c3:ac:2c:2b:6d:a4:35:96:5d:10:94:b7:c1:be:
        5d:ba:6d:f1:ec:e2:6b:4c:a9:83:3e:52:23:f0:9a:74:8b:53:
        7c:fc:36:bd:74:91:47:89:f1:4e:34:83:b4:ed:57:5b:b3:ba:
        45:db:33:a9:4b:8a:88:e7:30:4d:cd:75:43:40:81:87:9d:af:
        fd:1f:10:4e:57:f6:82:e8:86:18:27:24:74:f8:60:7e:9c:90:
        99:9d:13:56:97:f0:a9:87:7e:eb:39:31:ab:af:54:54:e5:73:
        38:88:fe:80:74:cf:73:43:c2:ce:46:43:25:ec:99:6d:f0:63:
        91:1c
-----BEGIN CERTIFICATE-----
MIIESTCCA7KgAwIBAgIBCTANBgkqhkiG9w0BAQUFADCBoDELMAkGA1UEBhMCVVMx
CzAJBgNVBAgTAk5DMRAwDgYDVQQHEwdSYWxlaWdoMRcwFQYDVQQKEw5GZWRvcmEg
UHJvamVjdDEPMA0GA1UECxMGZmVkbXNnMQ8wDQYDVQQDEwZmZWRtc2cxDzANBgNV
BCkTBmZlZG1zZzEmMCQGCSqGSIb3DQEJARYXYWRtaW5AZmVkb3JhcHJvamVjdC5v
cmcwHhcNMTIwNzE1MjExODUyWhcNMjIwNzEzMjExODUyWjCB2DELMAkGA1UEBhMC
VVMxCzAJBgNVBAgTAk5DMRAwDgYDVQQHEwdSYWxlaWdoMRcwFQYDVQQKEw5GZWRv
cmEgUHJvamVjdDEPMA0GA1UECxMGZmVkbXNnMSswKQYDVQQDEyJzaGVsbC1hcHAw
Ny5waHgyLmZlZG9yYXByb2plY3Qub3JnMSswKQYDVQQpEyJzaGVsbC1hcHAwNy5w
aHgyLmZlZG9yYXByb2plY3Qub3JnMSYwJAYJKoZIhvcNAQkBFhdhZG1pbkBmZWRv
cmFwcm9qZWN0Lm9yZzCBnzANBgkqhkiG9w0BAQEFAAOBjQAwgYkCgYEAxa0YF2pU
KhV+sE584GIT7fZavj4noJJ+I9NhQFF7kXmUvXp48BAwmNRfOHcFnblXWIm8cuZt
VaijAUN7RWKaVO9PHMOAbMBslYdnKEl30b9kBCoUiMgSm3/NQQs5eb4GWR46fG1P
gZ4ha6a+zZGU59rS6Ov2N9T/lPtbXD5VfT0CAwEAAaOCAVcwggFTMAkGA1UdEwQC
MAAwLQYJYIZIAYb4QgENBCAWHkVhc3ktUlNBIEdlbmVyYXRlZCBDZXJ0aWZpY2F0
ZTAdBgNVHQ4EFgQU9fVkS3+JhpwqKFo2tMPLVYeyxMgwgdUGA1UdIwSBzTCByoAU
AJil1efEVQ6Eo2f+ZkoW4AQV3SGhgaakgaMwgaAxCzAJBgNVBAYTAlVTMQswCQYD
VQQIEwJOQzEQMA4GA1UEBxMHUmFsZWlnaDEXMBUGA1UEChMORmVkb3JhIFByb2pl
Y3QxDzANBgNVBAsTBmZlZG1zZzEPMA0GA1UEAxMGZmVkbXNnMQ8wDQYDVQQpEwZm
ZWRtc2cxJjAkBgkqhkiG9w0BCQEWF2FkbWluQGZlZG9yYXByb2plY3Qub3JnggkA
juso2KkTnXwwEwYDVR0lBAwwCgYIKwYBBQUHAwIwCwYDVR0PBAQDAgeAMA0GCSqG
SIb3DQEBBQUAA4GBAOTNH+TDrCwrbaQ1ll0QlLfBvl26bfHs4mtMqYM+UiPwmnSL
U3z8Nr10kUeJ8U40g7TtV1uzukXbM6lLiojnME3NdUNAgYedr/0fEE5X9oLohhgn
JHT4YH6ckJmdE1aX8KmHfus5MauvVFTlcziI/oB0z3NDws5GQyXsmW3wY5Ec
-----END CERTIFICATE-----
