Certificate:
    Data:
        Version: 3 (0x2)
        Serial Number: 9 (0x9)
        Signature Algorithm: sha256WithRSAEncryption
        Issuer: C=US, ST=NC, L=Raleigh, O=Fedora Project, OU=fedmsg, CN=fedmsg/name=fedmsg/emailAddress=admin@fedoraproject.org
        Validity
            Not Before: Feb 20 11:43:12 2023 GMT
            Not After : Feb 17 11:43:12 2033 GMT
        Subject: C=US, ST=NC, L=Raleigh, O=Fedora Project, OU=fedmsg, CN=shell-app07.phx2.fedoraproject.org/name=shell-app07.phx2.fedoraproject.org/emailAddress=admin@fedoraproject.org
        Subject Public Key Info:
            Public Key Algorithm: rsaEncryption
                Public-Key: (1024 bit)
                Modulus:
                    00:d7:74:a3:3f:d8:2d:6b:4d:5a:21:33:b8:87:3a:
                    e8:85:f1:67:35:29:ce:cf:a1:34:d0:5f:8a:5b:0e:
                    20:92:c0:70:23:ff:bf:a6:26:11:88:f4:05:94:13:
                    8e:27:02:59:69:ac:47:d6:e1:be:97:5a:a8:69:82:
                    ce:ac:09:42:65:c9:3c:54:1f:43:d5:2c:1e:07:fe:
                    43:36:35:e2:78:3b:61:2d:34:74:b5:0b:c5:61:8b:
                    60:90:e1:61:af:f7:f3:e3:e6:65:8f:48:c2:7d:89:
                    d8:d1:34:81:89:85:d4:a5:d3:4e:f6:1d:5e:d1:48:
                    22:18:96:84:32:4e:33:4c:d1
                Exponent: 65537 (0x10001)
        X509v3 extensions:
            X509v3 Basic Constraints: 
                CA:FALSE
            Netscape Comment: 
                Easy-RSA Generated Certificate
            X509v3 Subject Key Identifier: 
                D2:0F:32:4A:31:3F:87:4C:16:55:BA:6D:BF:9E:85:7A:56:20:34:62
            X509v3 Authority Key Identifier: 
                keyid:85:3B:0B:B5:86:22:32:DD:BD:F8:E1:7C:89:C3:20:AD:CA:44:B5:38
                DirName:/C=US/ST=NC/L=Raleigh/O=Fedora Project/OU=fedmsg/CN=fedmsg/name=fedmsg/emailAddress=admin@fedoraproject.org
                serial:31:18:5F:9A:5C:BE:C6:64:1E:FD:20:B3:37:B2:B2:16:FB:E0:C0:F6
            X509v3 Extended Key Usage: 
                TLS Web Client Authentication
            X509v3 Key Usage: 
                Digital Signature
    Signature Algorithm: sha256WithRSAEncryption
    Signature Value:
        7f:1f:9c:19:7a:1c:4f:d9:9c:3e:dd:d4:1d:6d:98:40:44:6e:
        96:e3:77:4f:88:81:6d:fb:66:3c:8b:c2:66:36:f1:49:86:9a:
        eb:f1:eb:7f:57:bc:a0:64:ca:ac:6a:2c:73:01:47:49:df:26:
        89:2e:da:ad:a2:fc:fc:a4:94:db:0a:af:1c:01:7f:94:45:d9:
        d4:fa:f3:f4:cb:25:e0:3c:9f:4f:5c:09:37:72:77:cc:55:1f:
        31:0d:02:c7:99:9b:9b:dc:38:47:93:fd:15:90:9d:ad:e7:19:
        45:eb:fa:5d:c4:01:bf:95:45:09:75:4e:70:9d:5f:63:e1:e7:
        27:8c
-----BEGIN CERTIFICATE-----
MIIEVDCCA72gAwIBAgIBCTANBgkqhkiG9w0BAQsFADCBoDELMAkGA1UEBhMCVVMx
CzAJBgNVBAgTAk5DMRAwDgYDVQQHEwdSYWxlaWdoMRcwFQYDVQQKEw5GZWRvcmEg
UHJvamVjdDEPMA0GA1UECxMGZmVkbXNnMQ8wDQYDVQQDEwZmZWRtc2cxDzANBgNV
BCkTBmZlZG1zZzEmMCQGCSqGSIb3DQEJARYXYWRtaW5AZmVkb3JhcHJvamVjdC5v
cmcwHhcNMjMwMjIwMTE0MzEyWhcNMzMwMjE3MTE0MzEyWjCB2DELMAkGA1UEBhMC
VVMxCzAJBgNVBAgTAk5DMRAwDgYDVQQHEwdSYWxlaWdoMRcwFQYDVQQKEw5GZWRv
cmEgUHJvamVjdDEPMA0GA1UECxMGZmVkbXNnMSswKQYDVQQDEyJzaGVsbC1hcHAw
Ny5waHgyLmZlZG9yYXByb2plY3Qub3JnMSswKQYDVQQpEyJzaGVsbC1hcHAwNy5w
aHgyLmZlZG9yYXByb2plY3Qub3JnMSYwJAYJKoZIhvcNAQkBFhdhZG1pbkBmZWRv
cmFwcm9qZWN0Lm9yZzCBnzANBgkqhkiG9w0BAQEFAAOBjQAwgYkCgYEA13SjP9gt
a01aITO4hzrohfFnNSnOz6E00F+KWw4gksBwI/+/piYRiPQFlBOOJwJZaaxH1uG+
l1qoaYLOrAlCZck8VB9D1SweB/5DNjXieDthLTR0tQvFYYtgkOFhr/fz4+Zlj0jC
fYnY0TSBiYXUpdNO9h1e0UgiGJaEMk4zTNECAwEAAaOCAWIwggFeMAkGA1UdEwQC
MAAwLQYJYIZIAYb4QgENBCAWHkVhc3ktUlNBIEdlbmVyYXRlZCBDZXJ0aWZpY2F0
ZTAdBgNVHQ4EFgQU0g8ySjE/h0wWVbptv56FelYgNGIwgeAGA1UdIwSB2DCB1YAU
hTsLtYYiMt29+OF8icMgrcpEtTihgaakgaMwgaAxCzAJBgNVBAYTAlVTMQswCQYD
VQQIEwJOQzEQMA4GA1UEBxMHUmFsZWlnaDEXMBUGA1UEChMORmVkb3JhIFByb2pl
Y3QxDzANBgNVBAsTBmZlZG1zZzEPMA0GA1UEAxMGZmVkbXNnMQ8wDQYDVQQpEwZm
ZWRtc2cxJjAkBgkqhkiG9w0BCQEWF2FkbWluQGZlZG9yYXByb2plY3Qub3JnghQx
GF+aXL7GZB79ILM3srIW++DA9jATBgNVHSUEDDAKBggrBgEFBQcDAjALBgNVHQ8E
BAMCB4AwDQYJKoZIhvcNAQELBQADgYEAfx+cGXocT9mcPt3UHW2YQERuluN3T4iB
bftmPIvCZjbxSYaa6/Hrf1e8oGTKrGoscwFHSd8miS7araL8/KSU2wqvHAF/lEXZ
1Prz9Msl4DyfT1wJN3J3zFUfMQ0Cx5mbm9w4R5P9FZCdrecZRev6XcQBv5VFCXVO
cJ1fY+HnJ4w=
-----END CERTIFICATE-----
