Certificate:
    Data:
        Version: 3 (0x2)
        Serial Number: 11 (0xb)
        Signature Algorithm: sha1WithRSAEncryption
        Issuer: C=US, ST=NC, L=Raleigh, O=Fedora Project, OU=fedmsg, CN=fedmsg/name=fedmsg/emailAddress=admin@fedoraproject.org
        Validity
            Not Before: Jul 15 21:18:52 2012 GMT
            Not After : Jul 13 21:18:52 2022 GMT
        Subject: C=US, ST=NC, L=Raleigh, O=Fedora Project, OU=fedmsg, CN=shell-app02.stg.phx2.fedoraproject.org/name=shell-app02.stg.phx2.fedoraproject.org/emailAddress=admin@fedoraproject.org
        Subject Public Key Info:
            Public Key Algorithm: rsaEncryption
                Public-Key: (1024 bit)
                Modulus:
                    00:a5:a2:48:b0:70:f9:84:9e:89:f1:fd:d1:a2:0b:
                    0b:bd:ea:0f:e1:fa:e3:a2:3f:b5:0d:77:e2:96:38:
                    41:cf:7b:be:98:fd:3c:ad:3c:f8:d0:f8:0e:ef:91:
                    30:b0:d4:b7:cd:b5:d2:36:1a:a7:17:65:a5:0a:78:
                    fd:8c:6f:df:f5:04:4c:83:85:d7:25:34:c1:b1:ec:
                    2c:31:06:32:1c:ca:88:d5:6e:b1:15:b0:a7:8e:61:
                    06:f8:18:81:79:19:85:03:56:27:6c:85:98:8a:26:
                    7c:b3:8e:b3:f2:d6:e9:85:87:a4:29:df:45:d9:5b:
                    2c:86:81:c3:4b:e8:1a:c5:2b
                Exponent: 65537 (0x10001)
        X509v3 extensions:
            X509v3 Basic Constraints: 
                CA:FALSE
            Netscape Comment: 
                Easy-RSA Generated Certificate
            X509v3 Subject Key Identifier: 
                0E:91:E8:05:7B:09:E6:BD:10:83:D3:49:6A:F6:0C:C5:78:47:50:27
            X509v3 Authority Key Identifier: 
                keyid:00:98:A5:D5:E7:C4:55:0E:84:A3:67:FE:66:4A:16:E0:04:15:DD:21
                DirName:/C=US/ST=NC/L=Raleigh/O=Fedora Project/OU=fedmsg/CN=fedmsg/name=fedmsg/emailAddress=admin@fedoraproject.org
                serial:8E:EB:28:D8:A9:13:9D:7C

            X509v3 Extended Key Usage: 
                TLS Web Client Authentication
            X509v3 Key Usage: 
                Digital Signature
    Signature Algorithm: sha1WithRSAEncryption
        9b:4e:d3:49:45:7f:8e:d0:50:22:eb:3e:11:b4:b8:dd:05:cc:
        07:98:ef:e7:66:0f:9d:b9:a0:7c:8d:9f:f0:b4:61:4a:95:d5:
        ec:35:3c:4f:f9:8d:d1:a6:bb:12:2c:ff:70:f4:35:45:62:1f:
        b8:cb:bc:bf:b2:8e:c1:fa:80:5d:32:cd:31:8d:48:2c:5b:83:
        76:23:ea:66:35:36:f1:9c:23:e1:9f:81:f2:c4:ad:12:1b:58:
        76:14:16:22:5f:47:f7:2d:44:f7:38:4a:2a:cf:92:db:ff:1e:
        c6:be:9e:d9:89:96:a1:ca:b6:1d:b7:87:58:f0:cc:e1:75:e1:
        37:73
-----BEGIN CERTIFICATE-----
MIIEUTCCA7qgAwIBAgIBCzANBgkqhkiG9w0BAQUFADCBoDELMAkGA1UEBhMCVVMx
CzAJBgNVBAgTAk5DMRAwDgYDVQQHEwdSYWxlaWdoMRcwFQYDVQQKEw5GZWRvcmEg
UHJvamVjdDEPMA0GA1UECxMGZmVkbXNnMQ8wDQYDVQQDEwZmZWRtc2cxDzANBgNV
BCkTBmZlZG1zZzEmMCQGCSqGSIb3DQEJARYXYWRtaW5AZmVkb3JhcHJvamVjdC5v
cmcwHhcNMTIwNzE1MjExODUyWhcNMjIwNzEzMjExODUyWjCB4DELMAkGA1UEBhMC
VVMxCzAJBgNVBAgTAk5DMRAwDgYDVQQHEwdSYWxlaWdoMRcwFQYDVQQKEw5GZWRv
cmEgUHJvamVjdDEPMA0GA1UECxMGZmVkbXNnMS8wLQYDVQQDEyZzaGVsbC1hcHAw
Mi5zdGcucGh4Mi5mZWRvcmFwcm9qZWN0Lm9yZzEvMC0GA1UEKRMmc2hlbGwtYXBw
MDIuc3RnLnBoeDIuZmVkb3JhcHJvamVjdC5vcmcxJjAkBgkqhkiG9w0BCQEWF2Fk
bWluQGZlZG9yYXByb2plY3Qub3JnMIGfMA0GCSqGSIb3DQEBAQUAA4GNADCBiQKB
gQClokiwcPmEnonx/dGiCwu96g/h+uOiP7UNd+KWOEHPe76Y/TytPPjQ+A7vkTCw
1LfNtdI2GqcXZaUKeP2Mb9/1BEyDhdclNMGx7CwxBjIcyojVbrEVsKeOYQb4GIF5
GYUDVidshZiKJnyzjrPy1umFh6Qp30XZWyyGgcNL6BrFKwIDAQABo4IBVzCCAVMw
CQYDVR0TBAIwADAtBglghkgBhvhCAQ0EIBYeRWFzeS1SU0EgR2VuZXJhdGVkIENl
cnRpZmljYXRlMB0GA1UdDgQWBBQOkegFewnmvRCD00lq9gzFeEdQJzCB1QYDVR0j
BIHNMIHKgBQAmKXV58RVDoSjZ/5mShbgBBXdIaGBpqSBozCBoDELMAkGA1UEBhMC
VVMxCzAJBgNVBAgTAk5DMRAwDgYDVQQHEwdSYWxlaWdoMRcwFQYDVQQKEw5GZWRv
cmEgUHJvamVjdDEPMA0GA1UECxMGZmVkbXNnMQ8wDQYDVQQDEwZmZWRtc2cxDzAN
BgNVBCkTBmZlZG1zZzEmMCQGCSqGSIb3DQEJARYXYWRtaW5AZmVkb3JhcHJvamVj
dC5vcmeCCQCO6yjYqROdfDATBgNVHSUEDDAKBggrBgEFBQcDAjALBgNVHQ8EBAMC
B4AwDQYJKoZIhvcNAQEFBQADgYEAm07TSUV/jtBQIus+EbS43QXMB5jv52YPnbmg
fI2f8LRhSpXV7DU8T/mN0aa7Eiz/cPQ1RWIfuMu8v7KOwfqAXTLNMY1ILFuDdiPq
ZjU28Zwj4Z+B8sStEhtYdhQWIl9H9y1E9zhKKs+S2/8exr6e2YmWocq2HbeHWPDM
4XXhN3M=
-----END CERTIFICATE-----
