Certificate:
    Data:
        Version: 3 (0x2)
        Serial Number: 12 (0xc)
        Signature Algorithm: sha1WithRSAEncryption
        Issuer: C=US, ST=NC, L=Raleigh, O=Fedora Project, OU=fedmsg, CN=fedmsg/name=fedmsg/emailAddress=admin@fedoraproject.org
        Validity
            Not Before: Jul 15 21:18:52 2012 GMT
            Not After : Jul 13 21:18:52 2022 GMT
        Subject: C=US, ST=NC, L=Raleigh, O=Fedora Project, OU=fedmsg, CN=shell-fas01.phx2.fedoraproject.org/name=shell-fas01.phx2.fedoraproject.org/emailAddress=admin@fedoraproject.org
        Subject Public Key Info:
            Public Key Algorithm: rsaEncryption
                Public-Key: (1024 bit)
                Modulus:
                    00:93:eb:fd:77:fe:bf:5c:d7:b8:dc:4a:66:ae:8f:
                    9a:c2:1b:a2:cc:48:d1:2c:d3:cb:01:7f:18:fc:dd:
                    d7:b0:d8:78:2d:a2:0e:c4:8f:93:26:c8:a5:20:02:
                    0b:77:bf:18:32:af:5e:b8:7b:b8:25:d9:33:f8:ce:
                    c8:7a:6f:c8:78:0c:17:08:b7:96:fb:51:6a:34:d0:
                    34:4a:20:62:36:7c:e7:79:e9:d3:ab:85:5b:27:09:
                    0e:a8:50:60:ec:7e:10:70:d8:2c:18:6a:e3:82:53:
                    bd:5b:62:08:53:2b:20:2a:20:34:05:ef:03:66:f3:
                    67:2a:e5:0a:8a:f2:f2:98:61
                Exponent: 65537 (0x10001)
        X509v3 extensions:
            X509v3 Basic Constraints: 
                CA:FALSE
            Netscape Comment: 
                Easy-RSA Generated Certificate
            X509v3 Subject Key Identifier: 
                57:24:78:6A:46:74:8F:BA:E0:0D:AE:1D:10:72:8D:6B:FF:E7:64:D5
            X509v3 Authority Key Identifier: 
                keyid:00:98:A5:D5:E7:C4:55:0E:84:A3:67:FE:66:4A:16:E0:04:15:DD:21
                DirName:/C=US/ST=NC/L=Raleigh/O=Fedora Project/OU=fedmsg/CN=fedmsg/name=fedmsg/emailAddress=admin@fedoraproject.org
                serial:8E:EB:28:D8:A9:13:9D:7C

            X509v3 Extended Key Usage: 
                TLS Web Client Authentication
            X509v3 Key Usage: 
                Digital Signature
    Signature Algorithm: sha1WithRSAEncryption
        33:56:05:7a:bb:46:ba:a1:90:ae:72:12:09:c7:79:a6:59:69:
        68:32:d0:4f:56:cb:f3:15:81:89:8f:d8:84:37:02:01:a8:2b:
        d3:9a:21:1c:20:db:aa:ce:56:73:6b:99:a6:2c:1a:c3:a6:89:
        72:a0:f7:a7:5b:a7:a6:8d:ff:8b:20:1e:48:2f:18:ff:01:d1:
        33:17:7d:eb:06:35:6c:b3:b8:f4:86:10:f9:d4:5e:48:8d:15:
        1b:93:6e:75:39:01:e9:60:a9:9d:05:e7:82:2e:7d:46:c8:d4:
        ad:82:d8:80:52:44:a6:0d:37:a8:26:4a:fc:40:67:98:22:11:
        44:ca
-----BEGIN CERTIFICATE-----
MIIESTCCA7KgAwIBAgIBDDANBgkqhkiG9w0BAQUFADCBoDELMAkGA1UEBhMCVVMx
CzAJBgNVBAgTAk5DMRAwDgYDVQQHEwdSYWxlaWdoMRcwFQYDVQQKEw5GZWRvcmEg
UHJvamVjdDEPMA0GA1UECxMGZmVkbXNnMQ8wDQYDVQQDEwZmZWRtc2cxDzANBgNV
BCkTBmZlZG1zZzEmMCQGCSqGSIb3DQEJARYXYWRtaW5AZmVkb3JhcHJvamVjdC5v
cmcwHhcNMTIwNzE1MjExODUyWhcNMjIwNzEzMjExODUyWjCB2DELMAkGA1UEBhMC
VVMxCzAJBgNVBAgTAk5DMRAwDgYDVQQHEwdSYWxlaWdoMRcwFQYDVQQKEw5GZWRv
cmEgUHJvamVjdDEPMA0GA1UECxMGZmVkbXNnMSswKQYDVQQDEyJzaGVsbC1mYXMw
MS5waHgyLmZlZG9yYXByb2plY3Qub3JnMSswKQYDVQQpEyJzaGVsbC1mYXMwMS5w
aHgyLmZlZG9yYXByb2plY3Qub3JnMSYwJAYJKoZIhvcNAQkBFhdhZG1pbkBmZWRv
cmFwcm9qZWN0Lm9yZzCBnzANBgkqhkiG9w0BAQEFAAOBjQAwgYkCgYEAk+v9d/6/
XNe43Epmro+awhuizEjRLNPLAX8Y/N3XsNh4LaIOxI+TJsilIAILd78YMq9euHu4
Jdkz+M7Iem/IeAwXCLeW+1FqNNA0SiBiNnzneenTq4VbJwkOqFBg7H4QcNgsGGrj
glO9W2IIUysgKiA0Be8DZvNnKuUKivLymGECAwEAAaOCAVcwggFTMAkGA1UdEwQC
MAAwLQYJYIZIAYb4QgENBCAWHkVhc3ktUlNBIEdlbmVyYXRlZCBDZXJ0aWZpY2F0
ZTAdBgNVHQ4EFgQUVyR4akZ0j7rgDa4dEHKNa//nZNUwgdUGA1UdIwSBzTCByoAU
AJil1efEVQ6Eo2f+ZkoW4AQV3SGhgaakgaMwgaAxCzAJBgNVBAYTAlVTMQswCQYD
VQQIEwJOQzEQMA4GA1UEBxMHUmFsZWlnaDEXMBUGA1UEChMORmVkb3JhIFByb2pl
Y3QxDzANBgNVBAsTBmZlZG1zZzEPMA0GA1UEAxMGZmVkbXNnMQ8wDQYDVQQpEwZm
ZWRtc2cxJjAkBgkqhkiG9w0BCQEWF2FkbWluQGZlZG9yYXByb2plY3Qub3JnggkA
juso2KkTnXwwEwYDVR0lBAwwCgYIKwYBBQUHAwIwCwYDVR0PBAQDAgeAMA0GCSqG
SIb3DQEBBQUAA4GBADNWBXq7RrqhkK5yEgnHeaZZaWgy0E9Wy/MVgYmP2IQ3AgGo
K9OaIRwg26rOVnNrmaYsGsOmiXKg96dbp6aN/4sgHkgvGP8B0TMXfesGNWyzuPSG
EPnUXkiNFRuTbnU5AelgqZ0F54IufUbI1K2C2IBSRKYNN6gmSvxAZ5giEUTK
-----END CERTIFICATE-----
