Certificate:
    Data:
        Version: 3 (0x2)
        Serial Number: 12 (0xc)
        Signature Algorithm: sha256WithRSAEncryption
        Issuer: C=US, ST=NC, L=Raleigh, O=Fedora Project, OU=fedmsg, CN=fedmsg/name=fedmsg/emailAddress=admin@fedoraproject.org
        Validity
            Not Before: Feb 20 11:43:12 2023 GMT
            Not After : Feb 17 11:43:12 2033 GMT
        Subject: C=US, ST=NC, L=Raleigh, O=Fedora Project, OU=fedmsg, CN=shell-fas01.phx2.fedoraproject.org/name=shell-fas01.phx2.fedoraproject.org/emailAddress=admin@fedoraproject.org
        Subject Public Key Info:
            Public Key Algorithm: rsaEncryption
                Public-Key: (1024 bit)
                Modulus:
                    00:e4:4c:e9:2e:e7:1c:42:7d:b4:b0:ba:db:15:2f:
                    13:65:56:21:f7:45:76:8e:77:e0:dd:1d:41:c1:27:
                    f0:0b:c6:77:da:49:ec:73:77:dd:43:9a:5c:be:33:
                    f8:1d:3a:2c:87:09:7a:92:da:45:12:f4:e9:1b:9c:
                    34:6b:be:f4:7e:66:98:a4:c5:d6:09:f0:c1:01:3b:
                    87:67:60:44:d4:53:93:00:c0:d9:d1:47:38:fa:05:
                    d9:10:c1:d3:3e:2e:b4:32:66:26:32:ec:0f:f8:3a:
                    a5:3f:7e:f6:1b:2b:6e:01:f8:2b:06:83:e7:7f:ed:
                    2f:34:ce:6a:1d:57:7f:ba:e3
                Exponent: 65537 (0x10001)
        X509v3 extensions:
            X509v3 Basic Constraints: 
                CA:FALSE
            Netscape Comment: 
                Easy-RSA Generated Certificate
            X509v3 Subject Key Identifier: 
                B2:A5:CA:70:0F:5D:AF:27:87:C0:F9:C7:42:E7:98:F6:25:88:64:18
            X509v3 Authority Key Identifier: 
                keyid:85:3B:0B:B5:86:22:32:DD:BD:F8:E1:7C:89:C3:20:AD:CA:44:B5:38
                DirName:/C=US/ST=NC/L=Raleigh/O=Fedora Project/OU=fedmsg/CN=fedmsg/name=fedmsg/emailAddress=admin@fedoraproject.org
                serial:31:18:5F:9A:5C:BE:C6:64:1E:FD:20:B3:37:B2:B2:16:FB:E0:C0:F6
            X509v3 Extended Key Usage: 
                TLS Web Client Authentication
            X509v3 Key Usage: 
                Digital Signature
    Signature Algorithm: sha256WithRSAEncryption
    Signature Value:
        50:8d:38:6d:de:c6:5b:f7:fe:a0:d6:82:3e:53:b0:6b:0d:29:
        fd:d5:f8:66:9e:ed:a4:80:11:db:ba:65:7a:ae:18:2f:2c:8e:
        e2:75:87:b9:c7:5c:ad:ea:31:2d:ff:3e:80:4b:39:c9:7c:c1:
        aa:55:c2:9e:1f:7e:15:1d:76:8c:e3:30:c5:65:26:12:50:df:
        95:9a:7d:cf:48:a8:d4:43:19:f4:81:6c:8d:91:60:46:a3:c0:
        2c:c0:41:45:04:8e:9b:b1:2e:3e:6a:b3:55:f1:c3:7d:ab:d8:
        3c:b7:d7:fc:0c:6a:a1:95:ae:23:45:b3:e5:a3:f5:42:6a:3e:
        f0:12
-----BEGIN CERTIFICATE-----
MIIEVDCCA72gAwIBAgIBDDANBgkqhkiG9w0BAQsFADCBoDELMAkGA1UEBhMCVVMx
CzAJBgNVBAgTAk5DMRAwDgYDVQQHEwdSYWxlaWdoMRcwFQYDVQQKEw5GZWRvcmEg
UHJvamVjdDEPMA0GA1UECxMGZmVkbXNnMQ8wDQYDVQQDEwZmZWRtc2cxDzANBgNV
BCkTBmZlZG1zZzEmMCQGCSqGSIb3DQEJARYXYWRtaW5AZmVkb3JhcHJvamVjdC5v
cmcwHhcNMjMwMjIwMTE0MzEyWhcNMzMwMjE3MTE0MzEyWjCB2DELMAkGA1UEBhMC
VVMxCzAJBgNVBAgTAk5DMRAwDgYDVQQHEwdSYWxlaWdoMRcwFQYDVQQKEw5GZWRv
cmEgUHJvamVjdDEPMA0GA1UECxMGZmVkbXNnMSswKQYDVQQDEyJzaGVsbC1mYXMw
MS5waHgyLmZlZG9yYXByb2plY3Qub3JnMSswKQYDVQQpEyJzaGVsbC1mYXMwMS5w
aHgyLmZlZG9yYXByb2plY3Qub3JnMSYwJAYJKoZIhvcNAQkBFhdhZG1pbkBmZWRv
cmFwcm9qZWN0Lm9yZzCBnzANBgkqhkiG9w0BAQEFAAOBjQAwgYkCgYEA5EzpLucc
Qn20sLrbFS8TZVYh90V2jnfg3R1BwSfwC8Z32knsc3fdQ5pcvjP4HToshwl6ktpF
EvTpG5w0a770fmaYpMXWCfDBATuHZ2BE1FOTAMDZ0Uc4+gXZEMHTPi60MmYmMuwP
+DqlP372GytuAfgrBoPnf+0vNM5qHVd/uuMCAwEAAaOCAWIwggFeMAkGA1UdEwQC
MAAwLQYJYIZIAYb4QgENBCAWHkVhc3ktUlNBIEdlbmVyYXRlZCBDZXJ0aWZpY2F0
ZTAdBgNVHQ4EFgQUsqXKcA9dryeHwPnHQueY9iWIZBgwgeAGA1UdIwSB2DCB1YAU
hTsLtYYiMt29+OF8icMgrcpEtTihgaakgaMwgaAxCzAJBgNVBAYTAlVTMQswCQYD
VQQIEwJOQzEQMA4GA1UEBxMHUmFsZWlnaDEXMBUGA1UEChMORmVkb3JhIFByb2pl
Y3QxDzANBgNVBAsTBmZlZG1zZzEPMA0GA1UEAxMGZmVkbXNnMQ8wDQYDVQQpEwZm
ZWRtc2cxJjAkBgkqhkiG9w0BCQEWF2FkbWluQGZlZG9yYXByb2plY3Qub3JnghQx
GF+aXL7GZB79ILM3srIW++DA9jATBgNVHSUEDDAKBggrBgEFBQcDAjALBgNVHQ8E
BAMCB4AwDQYJKoZIhvcNAQELBQADgYEAUI04bd7GW/f+oNaCPlOwaw0p/dX4Zp7t
pIAR27pleq4YLyyO4nWHucdcreoxLf8+gEs5yXzBqlXCnh9+FR12jOMwxWUmElDf
lZp9z0io1EMZ9IFsjZFgRqPALMBBRQSOm7EuPmqzVfHDfavYPLfX/AxqoZWuI0Wz
5aP1Qmo+8BI=
-----END CERTIFICATE-----
