Certificate:
    Data:
        Version: 3 (0x2)
        Serial Number: 13 (0xd)
        Signature Algorithm: sha256WithRSAEncryption
        Issuer: C=US, ST=NC, L=Raleigh, O=Fedora Project, OU=fedmsg, CN=fedmsg/name=fedmsg/emailAddress=admin@fedoraproject.org
        Validity
            Not Before: Feb 20 11:43:12 2023 GMT
            Not After : Feb 17 11:43:12 2033 GMT
        Subject: C=US, ST=NC, L=Raleigh, O=Fedora Project, OU=fedmsg, CN=shell-fas01.stg.phx2.fedoraproject.org/name=shell-fas01.stg.phx2.fedoraproject.org/emailAddress=admin@fedoraproject.org
        Subject Public Key Info:
            Public Key Algorithm: rsaEncryption
                Public-Key: (1024 bit)
                Modulus:
                    00:ae:1b:85:3e:5c:b9:eb:27:fa:6e:35:e8:11:9c:
                    3f:64:7e:01:9e:89:b1:50:a8:49:b6:88:a0:a8:52:
                    60:b5:da:3a:8b:a2:b4:a1:50:b4:d0:c8:4e:bd:a5:
                    68:86:c3:28:ef:bd:17:a9:83:81:32:9e:26:14:58:
                    30:f9:cc:d3:42:91:c6:7f:cb:93:a8:ea:bd:8c:b1:
                    1b:fc:b9:a3:35:44:e3:8e:9e:ed:88:2e:4b:47:4c:
                    b5:75:82:50:70:cb:5b:c2:73:c0:df:e3:29:d4:8d:
                    91:d7:27:b3:58:a3:66:62:3a:48:a7:e1:c2:35:3f:
                    b9:92:e7:87:d5:7e:db:92:f3
                Exponent: 65537 (0x10001)
        X509v3 extensions:
            X509v3 Basic Constraints: 
                CA:FALSE
            Netscape Comment: 
                Easy-RSA Generated Certificate
            X509v3 Subject Key Identifier: 
                BD:2D:3B:58:DF:C6:3C:0A:59:33:2B:E9:40:07:66:B8:35:3A:CA:10
            X509v3 Authority Key Identifier: 
                keyid:85:3B:0B:B5:86:22:32:DD:BD:F8:E1:7C:89:C3:20:AD:CA:44:B5:38
                DirName:/C=US/ST=NC/L=Raleigh/O=Fedora Project/OU=fedmsg/CN=fedmsg/name=fedmsg/emailAddress=admin@fedoraproject.org
                serial:31:18:5F:9A:5C:BE:C6:64:1E:FD:20:B3:37:B2:B2:16:FB:E0:C0:F6
            X509v3 Extended Key Usage: 
                TLS Web Client Authentication
            X509v3 Key Usage: 
                Digital Signature
    Signature Algorithm: sha256WithRSAEncryption
    Signature Value:
        53:3f:a8:2f:08:1b:3a:a5:db:36:06:26:70:89:0a:0a:ae:40:
        7d:b3:5f:42:e6:a0:72:12:a3:b2:53:5f:e5:31:52:9f:99:a3:
        83:f3:20:bc:49:4e:31:f0:ac:28:6a:80:d4:a5:d6:73:c7:41:
        4e:aa:86:e6:45:d5:e1:a4:e7:cf:79:f3:d4:0f:c9:62:76:5e:
        ca:bb:6f:25:4e:c2:9e:15:66:58:cc:4c:e9:26:31:b0:1a:bc:
        63:75:2e:d9:23:39:9e:5c:d4:4e:3c:45:07:29:8e:e3:fa:d6:
        85:18:aa:fe:9e:cf:09:b1:2a:f2:6b:40:5d:a3:5f:d3:68:31:
        b3:7a
-----BEGIN CERTIFICATE-----
MIIEXDCCA8WgAwIBAgIBDTANBgkqhkiG9w0BAQsFADCBoDELMAkGA1UEBhMCVVMx
CzAJBgNVBAgTAk5DMRAwDgYDVQQHEwdSYWxlaWdoMRcwFQYDVQQKEw5GZWRvcmEg
UHJvamVjdDEPMA0GA1UECxMGZmVkbXNnMQ8wDQYDVQQDEwZmZWRtc2cxDzANBgNV
BCkTBmZlZG1zZzEmMCQGCSqGSIb3DQEJARYXYWRtaW5AZmVkb3JhcHJvamVjdC5v
cmcwHhcNMjMwMjIwMTE0MzEyWhcNMzMwMjE3MTE0MzEyWjCB4DELMAkGA1UEBhMC
VVMxCzAJBgNVBAgTAk5DMRAwDgYDVQQHEwdSYWxlaWdoMRcwFQYDVQQKEw5GZWRv
cmEgUHJvamVjdDEPMA0GA1UECxMGZmVkbXNnMS8wLQYDVQQDEyZzaGVsbC1mYXMw
MS5zdGcucGh4Mi5mZWRvcmFwcm9qZWN0Lm9yZzEvMC0GA1UEKRMmc2hlbGwtZmFz
MDEuc3RnLnBoeDIuZmVkb3JhcHJvamVjdC5vcmcxJjAkBgkqhkiG9w0BCQEWF2Fk
bWluQGZlZG9yYXByb2plY3Qub3JnMIGfMA0GCSqGSIb3DQEBAQUAA4GNADCBiQKB
gQCuG4U+XLnrJ/puNegRnD9kfgGeibFQqEm2iKCoUmC12jqLorShULTQyE69pWiG
wyjvvRepg4EyniYUWDD5zNNCkcZ/y5Oo6r2MsRv8uaM1ROOOnu2ILktHTLV1glBw
y1vCc8Df4ynUjZHXJ7NYo2ZiOkin4cI1P7mS54fVftuS8wIDAQABo4IBYjCCAV4w
CQYDVR0TBAIwADAtBglghkgBhvhCAQ0EIBYeRWFzeS1SU0EgR2VuZXJhdGVkIENl
cnRpZmljYXRlMB0GA1UdDgQWBBS9LTtY38Y8ClkzK+lAB2a4NTrKEDCB4AYDVR0j
BIHYMIHVgBSFOwu1hiIy3b344XyJwyCtykS1OKGBpqSBozCBoDELMAkGA1UEBhMC
VVMxCzAJBgNVBAgTAk5DMRAwDgYDVQQHEwdSYWxlaWdoMRcwFQYDVQQKEw5GZWRv
cmEgUHJvamVjdDEPMA0GA1UECxMGZmVkbXNnMQ8wDQYDVQQDEwZmZWRtc2cxDzAN
BgNVBCkTBmZlZG1zZzEmMCQGCSqGSIb3DQEJARYXYWRtaW5AZmVkb3JhcHJvamVj
dC5vcmeCFDEYX5pcvsZkHv0gszeyshb74MD2MBMGA1UdJQQMMAoGCCsGAQUFBwMC
MAsGA1UdDwQEAwIHgDANBgkqhkiG9w0BAQsFAAOBgQBTP6gvCBs6pds2BiZwiQoK
rkB9s19C5qByEqOyU1/lMVKfmaOD8yC8SU4x8KwoaoDUpdZzx0FOqobmRdXhpOfP
efPUD8lidl7Ku28lTsKeFWZYzEzpJjGwGrxjdS7ZIzmeXNROPEUHKY7j+taFGKr+
ns8JsSrya0Bdo1/TaDGzeg==
-----END CERTIFICATE-----
