Certificate:
    Data:
        Version: 3 (0x2)
        Serial Number: 13 (0xd)
        Signature Algorithm: sha1WithRSAEncryption
        Issuer: C=US, ST=NC, L=Raleigh, O=Fedora Project, OU=fedmsg, CN=fedmsg/name=fedmsg/emailAddress=admin@fedoraproject.org
        Validity
            Not Before: Jul 15 21:18:52 2012 GMT
            Not After : Jul 13 21:18:52 2022 GMT
        Subject: C=US, ST=NC, L=Raleigh, O=Fedora Project, OU=fedmsg, CN=shell-fas01.stg.phx2.fedoraproject.org/name=shell-fas01.stg.phx2.fedoraproject.org/emailAddress=admin@fedoraproject.org
        Subject Public Key Info:
            Public Key Algorithm: rsaEncryption
                Public-Key: (1024 bit)
                Modulus:
                    00:de:ab:04:fd:4c:1b:4b:f1:9b:ac:f4:ba:a4:ab:
                    d2:ea:fb:0e:f2:07:eb:e3:af:73:6e:a5:2b:61:1c:
                    43:f2:8b:6a:e2:03:a1:6b:02:70:96:fa:44:a9:7c:
                    d1:b0:1c:bc:f4:b1:b8:89:f8:bb:03:8c:10:b9:0c:
                    e4:62:8e:c5:95:b7:38:1a:e2:82:24:6d:9f:86:ac:
                    34:5f:04:04:43:5c:a3:05:82:bc:b1:a0:b3:e6:9a:
                    d0:12:c9:7c:56:55:d5:51:11:51:b8:2e:87:43:1f:
                    2c:85:7f:70:87:44:93:cf:d7:95:9b:38:fa:ef:27:
                    e6:25:f8:01:8d:70:ea:3b:69
                Exponent: 65537 (0x10001)
        X509v3 extensions:
            X509v3 Basic Constraints: 
                CA:FALSE
            Netscape Comment: 
                Easy-RSA Generated Certificate
            X509v3 Subject Key Identifier: 
                18:2B:D1:42:4E:D1:DE:2E:4A:39:66:9B:1D:B9:21:9C:38:A9:CE:78
            X509v3 Authority Key Identifier: 
                keyid:00:98:A5:D5:E7:C4:55:0E:84:A3:67:FE:66:4A:16:E0:04:15:DD:21
                DirName:/C=US/ST=NC/L=Raleigh/O=Fedora Project/OU=fedmsg/CN=fedmsg/name=fedmsg/emailAddress=admin@fedoraproject.org
                serial:8E:EB:28:D8:A9:13:9D:7C

            X509v3 Extended Key Usage: 
                TLS Web Client Authentication
            X509v3 Key Usage: 
                Digital Signature
    Signature Algorithm: sha1WithRSAEncryption
        61:52:82:64:2d:70:0e:14:a2:5a:34:20:f3:5e:81:e4:4a:37:
        45:1b:64:ca:78:58:ff:18:6d:66:be:47:a3:07:31:ba:2a:d7:
        81:93:32:37:34:7d:d9:7c:89:1c:e8:30:eb:9d:a1:30:b3:b5:
        95:29:28:bc:66:6d:55:5b:75:3a:f7:b9:55:87:49:10:e5:d9:
        b6:d0:71:22:46:96:b3:23:c8:29:b2:58:f8:45:6d:03:f3:d5:
        ff:96:11:a8:0b:ec:b1:b1:7b:a0:ad:9c:0e:93:26:df:de:f4:
        69:f2:cd:35:ec:85:8d:ac:56:59:c9:f3:cb:77:6e:96:ee:cb:
        65:3e
-----BEGIN CERTIFICATE-----
MIIEUTCCA7qgAwIBAgIBDTANBgkqhkiG9w0BAQUFADCBoDELMAkGA1UEBhMCVVMx
CzAJBgNVBAgTAk5DMRAwDgYDVQQHEwdSYWxlaWdoMRcwFQYDVQQKEw5GZWRvcmEg
UHJvamVjdDEPMA0GA1UECxMGZmVkbXNnMQ8wDQYDVQQDEwZmZWRtc2cxDzANBgNV
BCkTBmZlZG1zZzEmMCQGCSqGSIb3DQEJARYXYWRtaW5AZmVkb3JhcHJvamVjdC5v
cmcwHhcNMTIwNzE1MjExODUyWhcNMjIwNzEzMjExODUyWjCB4DELMAkGA1UEBhMC
VVMxCzAJBgNVBAgTAk5DMRAwDgYDVQQHEwdSYWxlaWdoMRcwFQYDVQQKEw5GZWRv
cmEgUHJvamVjdDEPMA0GA1UECxMGZmVkbXNnMS8wLQYDVQQDEyZzaGVsbC1mYXMw
MS5zdGcucGh4Mi5mZWRvcmFwcm9qZWN0Lm9yZzEvMC0GA1UEKRMmc2hlbGwtZmFz
MDEuc3RnLnBoeDIuZmVkb3JhcHJvamVjdC5vcmcxJjAkBgkqhkiG9w0BCQEWF2Fk
bWluQGZlZG9yYXByb2plY3Qub3JnMIGfMA0GCSqGSIb3DQEBAQUAA4GNADCBiQKB
gQDeqwT9TBtL8Zus9Lqkq9Lq+w7yB+vjr3NupSthHEPyi2riA6FrAnCW+kSpfNGw
HLz0sbiJ+LsDjBC5DORijsWVtzga4oIkbZ+GrDRfBARDXKMFgryxoLPmmtASyXxW
VdVREVG4LodDHyyFf3CHRJPP15WbOPrvJ+Yl+AGNcOo7aQIDAQABo4IBVzCCAVMw
CQYDVR0TBAIwADAtBglghkgBhvhCAQ0EIBYeRWFzeS1SU0EgR2VuZXJhdGVkIENl
cnRpZmljYXRlMB0GA1UdDgQWBBQYK9FCTtHeLko5ZpsduSGcOKnOeDCB1QYDVR0j
BIHNMIHKgBQAmKXV58RVDoSjZ/5mShbgBBXdIaGBpqSBozCBoDELMAkGA1UEBhMC
VVMxCzAJBgNVBAgTAk5DMRAwDgYDVQQHEwdSYWxlaWdoMRcwFQYDVQQKEw5GZWRv
cmEgUHJvamVjdDEPMA0GA1UECxMGZmVkbXNnMQ8wDQYDVQQDEwZmZWRtc2cxDzAN
BgNVBCkTBmZlZG1zZzEmMCQGCSqGSIb3DQEJARYXYWRtaW5AZmVkb3JhcHJvamVj
dC5vcmeCCQCO6yjYqROdfDATBgNVHSUEDDAKBggrBgEFBQcDAjALBgNVHQ8EBAMC
B4AwDQYJKoZIhvcNAQEFBQADgYEAYVKCZC1wDhSiWjQg816B5Eo3RRtkynhY/xht
Zr5HowcxuirXgZMyNzR92XyJHOgw652hMLO1lSkovGZtVVt1Ove5VYdJEOXZttBx
IkaWsyPIKbJY+EVtA/PV/5YRqAvssbF7oK2cDpMm3970afLNNeyFjaxWWcnzy3du
lu7LZT4=
-----END CERTIFICATE-----
