Certificate:
    Data:
        Version: 3 (0x2)
        Serial Number: 14 (0xe)
        Signature Algorithm: sha1WithRSAEncryption
        Issuer: C=US, ST=NC, L=Raleigh, O=Fedora Project, OU=fedmsg, CN=fedmsg/name=fedmsg/emailAddress=admin@fedoraproject.org
        Validity
            Not Before: Jul 15 21:18:52 2012 GMT
            Not After : Jul 13 21:18:52 2022 GMT
        Subject: C=US, ST=NC, L=Raleigh, O=Fedora Project, OU=fedmsg, CN=shell-fas01.dev.phx2.fedoraproject.org/name=shell-fas01.dev.phx2.fedoraproject.org/emailAddress=admin@fedoraproject.org
        Subject Public Key Info:
            Public Key Algorithm: rsaEncryption
                Public-Key: (1024 bit)
                Modulus:
                    00:df:60:8a:56:a3:8e:46:fa:db:94:95:3e:27:ba:
                    87:38:f5:0f:f7:4f:29:41:38:25:b6:f5:1c:bf:49:
                    89:38:41:ed:29:26:f9:96:6a:0c:98:16:ed:0d:e9:
                    01:56:d5:f5:83:07:7e:8b:40:c7:df:89:91:2e:ea:
                    0d:82:d9:91:13:35:61:d1:22:e8:56:96:18:a0:45:
                    3f:45:57:91:d2:86:76:58:66:f2:38:70:fb:db:81:
                    2a:b5:d6:a9:01:80:85:59:97:d3:3d:49:35:c6:6c:
                    2d:b5:a8:47:50:9d:b4:b9:79:95:8b:c2:6b:25:20:
                    f3:e8:96:6d:79:fc:53:be:a5
                Exponent: 65537 (0x10001)
        X509v3 extensions:
            X509v3 Basic Constraints: 
                CA:FALSE
            Netscape Comment: 
                Easy-RSA Generated Certificate
            X509v3 Subject Key Identifier: 
                E7:96:A6:27:1B:7F:5F:3A:37:D5:0D:67:56:D5:65:0D:A5:DF:58:0A
            X509v3 Authority Key Identifier: 
                keyid:00:98:A5:D5:E7:C4:55:0E:84:A3:67:FE:66:4A:16:E0:04:15:DD:21
                DirName:/C=US/ST=NC/L=Raleigh/O=Fedora Project/OU=fedmsg/CN=fedmsg/name=fedmsg/emailAddress=admin@fedoraproject.org
                serial:8E:EB:28:D8:A9:13:9D:7C

            X509v3 Extended Key Usage: 
                TLS Web Client Authentication
            X509v3 Key Usage: 
                Digital Signature
    Signature Algorithm: sha1WithRSAEncryption
        ef:83:7d:74:e5:d4:ef:85:c1:21:cd:c1:fa:eb:6e:75:67:ea:
        75:56:59:d2:a2:1b:33:16:4e:7f:47:fa:19:64:b6:01:9f:c0:
        d7:c6:2f:c3:ff:fd:62:9e:e2:7b:1d:6a:32:32:14:fc:83:f9:
        e4:7c:58:f7:7c:03:2a:d8:84:7f:49:5e:c4:84:ef:73:1a:6f:
        7e:e0:a5:4b:19:11:49:c4:7e:ba:30:b5:ba:84:e6:b5:1b:c1:
        7f:ad:10:75:99:5f:28:55:1b:48:9b:ee:30:7e:be:fa:a2:0f:
        31:0a:5d:4d:f5:34:7f:66:aa:6f:0d:d6:e3:8f:f6:ba:72:56:
        5f:f8
-----BEGIN CERTIFICATE-----
MIIEUTCCA7qgAwIBAgIBDjANBgkqhkiG9w0BAQUFADCBoDELMAkGA1UEBhMCVVMx
CzAJBgNVBAgTAk5DMRAwDgYDVQQHEwdSYWxlaWdoMRcwFQYDVQQKEw5GZWRvcmEg
UHJvamVjdDEPMA0GA1UECxMGZmVkbXNnMQ8wDQYDVQQDEwZmZWRtc2cxDzANBgNV
BCkTBmZlZG1zZzEmMCQGCSqGSIb3DQEJARYXYWRtaW5AZmVkb3JhcHJvamVjdC5v
cmcwHhcNMTIwNzE1MjExODUyWhcNMjIwNzEzMjExODUyWjCB4DELMAkGA1UEBhMC
VVMxCzAJBgNVBAgTAk5DMRAwDgYDVQQHEwdSYWxlaWdoMRcwFQYDVQQKEw5GZWRv
cmEgUHJvamVjdDEPMA0GA1UECxMGZmVkbXNnMS8wLQYDVQQDEyZzaGVsbC1mYXMw
MS5kZXYucGh4Mi5mZWRvcmFwcm9qZWN0Lm9yZzEvMC0GA1UEKRMmc2hlbGwtZmFz
MDEuZGV2LnBoeDIuZmVkb3JhcHJvamVjdC5vcmcxJjAkBgkqhkiG9w0BCQEWF2Fk
bWluQGZlZG9yYXByb2plY3Qub3JnMIGfMA0GCSqGSIb3DQEBAQUAA4GNADCBiQKB
gQDfYIpWo45G+tuUlT4nuoc49Q/3TylBOCW29Ry/SYk4Qe0pJvmWagyYFu0N6QFW
1fWDB36LQMffiZEu6g2C2ZETNWHRIuhWlhigRT9FV5HShnZYZvI4cPvbgSq11qkB
gIVZl9M9STXGbC21qEdQnbS5eZWLwmslIPPolm15/FO+pQIDAQABo4IBVzCCAVMw
CQYDVR0TBAIwADAtBglghkgBhvhCAQ0EIBYeRWFzeS1SU0EgR2VuZXJhdGVkIENl
cnRpZmljYXRlMB0GA1UdDgQWBBTnlqYnG39fOjfVDWdW1WUNpd9YCjCB1QYDVR0j
BIHNMIHKgBQAmKXV58RVDoSjZ/5mShbgBBXdIaGBpqSBozCBoDELMAkGA1UEBhMC
VVMxCzAJBgNVBAgTAk5DMRAwDgYDVQQHEwdSYWxlaWdoMRcwFQYDVQQKEw5GZWRv
cmEgUHJvamVjdDEPMA0GA1UECxMGZmVkbXNnMQ8wDQYDVQQDEwZmZWRtc2cxDzAN
BgNVBCkTBmZlZG1zZzEmMCQGCSqGSIb3DQEJARYXYWRtaW5AZmVkb3JhcHJvamVj
dC5vcmeCCQCO6yjYqROdfDATBgNVHSUEDDAKBggrBgEFBQcDAjALBgNVHQ8EBAMC
B4AwDQYJKoZIhvcNAQEFBQADgYEA74N9dOXU74XBIc3B+utudWfqdVZZ0qIbMxZO
f0f6GWS2AZ/A18Yvw//9Yp7iex1qMjIU/IP55HxY93wDKtiEf0lexITvcxpvfuCl
SxkRScR+ujC1uoTmtRvBf60QdZlfKFUbSJvuMH6++qIPMQpdTfU0f2aqbw3W44/2
unJWX/g=
-----END CERTIFICATE-----
