Certificate:
    Data:
        Version: 3 (0x2)
        Serial Number: 15 (0xf)
        Signature Algorithm: sha1WithRSAEncryption
        Issuer: C=US, ST=NC, L=Raleigh, O=Fedora Project, OU=fedmsg, CN=fedmsg/name=fedmsg/emailAddress=admin@fedoraproject.org
        Validity
            Not Before: Jul 15 21:18:52 2012 GMT
            Not After : Jul 13 21:18:52 2022 GMT
        Subject: C=US, ST=NC, L=Raleigh, O=Fedora Project, OU=fedmsg, CN=shell-packages01.phx2.fedoraproject.org/name=shell-packages01.phx2.fedoraproject.org/emailAddress=admin@fedoraproject.org
        Subject Public Key Info:
            Public Key Algorithm: rsaEncryption
                Public-Key: (1024 bit)
                Modulus:
                    00:c1:08:27:90:ec:80:49:61:9d:6d:02:2a:bb:22:
                    b1:4f:d6:2b:f3:cf:90:90:91:38:2b:59:a6:90:2f:
                    6a:41:82:4f:15:12:4e:15:fc:89:f7:a5:57:96:70:
                    b8:e5:81:5f:da:8b:c7:aa:5b:b3:8c:61:be:e9:13:
                    f7:43:f3:69:a2:09:1a:7d:72:25:c5:6f:28:be:b7:
                    29:1e:47:f9:8e:70:36:36:ca:0c:75:df:3e:7d:c1:
                    ba:01:d1:76:cb:ee:b5:bf:c4:93:13:37:b1:79:ed:
                    89:e7:f8:f9:f5:53:93:68:ef:6c:ca:a5:6d:af:d7:
                    c3:ca:a9:94:49:63:d6:a7:e1
                Exponent: 65537 (0x10001)
        X509v3 extensions:
            X509v3 Basic Constraints: 
                CA:FALSE
            Netscape Comment: 
                Easy-RSA Generated Certificate
            X509v3 Subject Key Identifier: 
                4D:1F:87:3B:3A:69:9E:5B:4F:65:3A:EA:C4:77:90:F9:8A:C3:41:5B
            X509v3 Authority Key Identifier: 
                keyid:00:98:A5:D5:E7:C4:55:0E:84:A3:67:FE:66:4A:16:E0:04:15:DD:21
                DirName:/C=US/ST=NC/L=Raleigh/O=Fedora Project/OU=fedmsg/CN=fedmsg/name=fedmsg/emailAddress=admin@fedoraproject.org
                serial:8E:EB:28:D8:A9:13:9D:7C

            X509v3 Extended Key Usage: 
                TLS Web Client Authentication
            X509v3 Key Usage: 
                Digital Signature
    Signature Algorithm: sha1WithRSAEncryption
        7e:b5:e5:d2:05:62:4f:52:22:b4:d0:36:a2:c4:56:b3:7b:c4:
        50:9b:92:95:00:1d:10:0d:1b:7b:8e:9e:d0:a9:46:dd:c2:f7:
        a1:a1:2b:09:f3:90:9b:bc:a9:3c:5e:00:36:42:6c:c3:59:a1:
        b8:6a:b2:24:00:40:57:69:de:bd:af:61:5f:d7:7d:cd:77:50:
        50:c5:f1:43:75:5b:aa:af:13:86:ca:ba:64:f2:bf:0f:d5:b6:
        c8:6f:83:28:39:94:13:d6:56:85:2d:4d:df:dc:84:12:1d:aa:
        30:14:39:e0:12:d9:3d:61:2e:22:1c:79:18:fa:4a:9e:17:0d:
        db:85
-----BEGIN CERTIFICATE-----
MIIEUzCCA7ygAwIBAgIBDzANBgkqhkiG9w0BAQUFADCBoDELMAkGA1UEBhMCVVMx
CzAJBgNVBAgTAk5DMRAwDgYDVQQHEwdSYWxlaWdoMRcwFQYDVQQKEw5GZWRvcmEg
UHJvamVjdDEPMA0GA1UECxMGZmVkbXNnMQ8wDQYDVQQDEwZmZWRtc2cxDzANBgNV
BCkTBmZlZG1zZzEmMCQGCSqGSIb3DQEJARYXYWRtaW5AZmVkb3JhcHJvamVjdC5v
cmcwHhcNMTIwNzE1MjExODUyWhcNMjIwNzEzMjExODUyWjCB4jELMAkGA1UEBhMC
VVMxCzAJBgNVBAgTAk5DMRAwDgYDVQQHEwdSYWxlaWdoMRcwFQYDVQQKEw5GZWRv
cmEgUHJvamVjdDEPMA0GA1UECxMGZmVkbXNnMTAwLgYDVQQDEydzaGVsbC1wYWNr
YWdlczAxLnBoeDIuZmVkb3JhcHJvamVjdC5vcmcxMDAuBgNVBCkTJ3NoZWxsLXBh
Y2thZ2VzMDEucGh4Mi5mZWRvcmFwcm9qZWN0Lm9yZzEmMCQGCSqGSIb3DQEJARYX
YWRtaW5AZmVkb3JhcHJvamVjdC5vcmcwgZ8wDQYJKoZIhvcNAQEBBQADgY0AMIGJ
AoGBAMEIJ5DsgElhnW0CKrsisU/WK/PPkJCROCtZppAvakGCTxUSThX8ifelV5Zw
uOWBX9qLx6pbs4xhvukT90PzaaIJGn1yJcVvKL63KR5H+Y5wNjbKDHXfPn3BugHR
dsvutb/EkxM3sXntief4+fVTk2jvbMqlba/Xw8qplElj1qfhAgMBAAGjggFXMIIB
UzAJBgNVHRMEAjAAMC0GCWCGSAGG+EIBDQQgFh5FYXN5LVJTQSBHZW5lcmF0ZWQg
Q2VydGlmaWNhdGUwHQYDVR0OBBYEFE0fhzs6aZ5bT2U66sR3kPmKw0FbMIHVBgNV
HSMEgc0wgcqAFACYpdXnxFUOhKNn/mZKFuAEFd0hoYGmpIGjMIGgMQswCQYDVQQG
EwJVUzELMAkGA1UECBMCTkMxEDAOBgNVBAcTB1JhbGVpZ2gxFzAVBgNVBAoTDkZl
ZG9yYSBQcm9qZWN0MQ8wDQYDVQQLEwZmZWRtc2cxDzANBgNVBAMTBmZlZG1zZzEP
MA0GA1UEKRMGZmVkbXNnMSYwJAYJKoZIhvcNAQkBFhdhZG1pbkBmZWRvcmFwcm9q
ZWN0Lm9yZ4IJAI7rKNipE518MBMGA1UdJQQMMAoGCCsGAQUFBwMCMAsGA1UdDwQE
AwIHgDANBgkqhkiG9w0BAQUFAAOBgQB+teXSBWJPUiK00DaixFaze8RQm5KVAB0Q
DRt7jp7QqUbdwvehoSsJ85CbvKk8XgA2QmzDWaG4arIkAEBXad69r2Ff133Nd1BQ
xfFDdVuqrxOGyrpk8r8P1bbIb4MoOZQT1laFLU3f3IQSHaowFDngEtk9YS4iHHkY
+kqeFw3bhQ==
-----END CERTIFICATE-----
