Certificate:
    Data:
        Version: 3 (0x2)
        Serial Number: 17 (0x11)
        Signature Algorithm: sha1WithRSAEncryption
        Issuer: C=US, ST=NC, L=Raleigh, O=Fedora Project, OU=fedmsg, CN=fedmsg/name=fedmsg/emailAddress=admin@fedoraproject.org
        Validity
            Not Before: Jul 15 21:18:53 2012 GMT
            Not After : Jul 13 21:18:53 2022 GMT
        Subject: C=US, ST=NC, L=Raleigh, O=Fedora Project, OU=fedmsg, CN=shell-packages01.stg.phx2.fedoraproject.org/name=shell-packages01.stg.phx2.fedoraproject.org/emailAddress=admin@fedoraproject.org
        Subject Public Key Info:
            Public Key Algorithm: rsaEncryption
                Public-Key: (1024 bit)
                Modulus:
                    00:da:64:64:a5:49:87:43:64:ff:43:dc:88:84:97:
                    3f:44:4a:d7:e1:dc:32:92:fc:e1:4d:a8:ab:35:39:
                    19:3f:d4:a7:1c:20:5f:9c:7c:d6:2f:58:33:42:ae:
                    bf:6e:8f:2a:c2:da:5f:93:e4:1c:eb:88:e9:b6:53:
                    40:83:06:b4:fa:dc:eb:ad:99:6e:1b:7b:0d:20:d0:
                    f2:ea:dd:f3:2e:dd:1a:51:78:8a:2e:2b:f3:1a:43:
                    c4:f5:8c:44:12:2d:2c:1e:3d:1f:74:37:5b:6f:79:
                    4e:4f:fc:fe:23:00:26:a9:cc:91:ad:81:f0:6a:b0:
                    45:b0:a3:70:31:b4:5e:ee:c3
                Exponent: 65537 (0x10001)
        X509v3 extensions:
            X509v3 Basic Constraints: 
                CA:FALSE
            Netscape Comment: 
                Easy-RSA Generated Certificate
            X509v3 Subject Key Identifier: 
                B8:71:E7:CE:3B:BA:4E:19:05:D9:F8:3B:D6:B9:C8:7F:64:22:F7:F8
            X509v3 Authority Key Identifier: 
                keyid:00:98:A5:D5:E7:C4:55:0E:84:A3:67:FE:66:4A:16:E0:04:15:DD:21
                DirName:/C=US/ST=NC/L=Raleigh/O=Fedora Project/OU=fedmsg/CN=fedmsg/name=fedmsg/emailAddress=admin@fedoraproject.org
                serial:8E:EB:28:D8:A9:13:9D:7C

            X509v3 Extended Key Usage: 
                TLS Web Client Authentication
            X509v3 Key Usage: 
                Digital Signature
    Signature Algorithm: sha1WithRSAEncryption
        68:ea:02:85:b5:ab:80:56:da:a4:48:1e:d1:44:40:53:03:da:
        1f:c0:ff:cc:2c:7d:9d:58:2a:a4:18:1c:aa:51:04:7e:1a:ff:
        c0:1d:d0:ca:f6:97:01:9f:ef:ec:f4:db:6e:26:7d:79:d8:6d:
        2a:0c:ed:e2:5d:33:c8:23:c8:75:ba:6c:95:0c:9a:8a:18:ce:
        bb:00:fe:36:45:59:9e:bf:24:f2:cf:e1:24:c0:7f:d5:d3:78:
        4a:2e:84:6e:59:91:11:b6:6d:3f:d2:a4:7c:b3:8c:1d:5e:63:
        9e:c4:29:e0:83:fe:2b:d3:a2:13:3e:58:f4:a2:1d:d2:a7:76:
        5f:5c
-----BEGIN CERTIFICATE-----
MIIEWzCCA8SgAwIBAgIBETANBgkqhkiG9w0BAQUFADCBoDELMAkGA1UEBhMCVVMx
CzAJBgNVBAgTAk5DMRAwDgYDVQQHEwdSYWxlaWdoMRcwFQYDVQQKEw5GZWRvcmEg
UHJvamVjdDEPMA0GA1UECxMGZmVkbXNnMQ8wDQYDVQQDEwZmZWRtc2cxDzANBgNV
BCkTBmZlZG1zZzEmMCQGCSqGSIb3DQEJARYXYWRtaW5AZmVkb3JhcHJvamVjdC5v
cmcwHhcNMTIwNzE1MjExODUzWhcNMjIwNzEzMjExODUzWjCB6jELMAkGA1UEBhMC
VVMxCzAJBgNVBAgTAk5DMRAwDgYDVQQHEwdSYWxlaWdoMRcwFQYDVQQKEw5GZWRv
cmEgUHJvamVjdDEPMA0GA1UECxMGZmVkbXNnMTQwMgYDVQQDEytzaGVsbC1wYWNr
YWdlczAxLnN0Zy5waHgyLmZlZG9yYXByb2plY3Qub3JnMTQwMgYDVQQpEytzaGVs
bC1wYWNrYWdlczAxLnN0Zy5waHgyLmZlZG9yYXByb2plY3Qub3JnMSYwJAYJKoZI
hvcNAQkBFhdhZG1pbkBmZWRvcmFwcm9qZWN0Lm9yZzCBnzANBgkqhkiG9w0BAQEF
AAOBjQAwgYkCgYEA2mRkpUmHQ2T/Q9yIhJc/RErX4dwykvzhTairNTkZP9SnHCBf
nHzWL1gzQq6/bo8qwtpfk+Qc64jptlNAgwa0+tzrrZluG3sNINDy6t3zLt0aUXiK
LivzGkPE9YxEEi0sHj0fdDdbb3lOT/z+IwAmqcyRrYHwarBFsKNwMbRe7sMCAwEA
AaOCAVcwggFTMAkGA1UdEwQCMAAwLQYJYIZIAYb4QgENBCAWHkVhc3ktUlNBIEdl
bmVyYXRlZCBDZXJ0aWZpY2F0ZTAdBgNVHQ4EFgQUuHHnzju6ThkF2fg71rnIf2Qi
9/gwgdUGA1UdIwSBzTCByoAUAJil1efEVQ6Eo2f+ZkoW4AQV3SGhgaakgaMwgaAx
CzAJBgNVBAYTAlVTMQswCQYDVQQIEwJOQzEQMA4GA1UEBxMHUmFsZWlnaDEXMBUG
A1UEChMORmVkb3JhIFByb2plY3QxDzANBgNVBAsTBmZlZG1zZzEPMA0GA1UEAxMG
ZmVkbXNnMQ8wDQYDVQQpEwZmZWRtc2cxJjAkBgkqhkiG9w0BCQEWF2FkbWluQGZl
ZG9yYXByb2plY3Qub3JnggkAjuso2KkTnXwwEwYDVR0lBAwwCgYIKwYBBQUHAwIw
CwYDVR0PBAQDAgeAMA0GCSqGSIb3DQEBBQUAA4GBAGjqAoW1q4BW2qRIHtFEQFMD
2h/A/8wsfZ1YKqQYHKpRBH4a/8Ad0Mr2lwGf7+z0224mfXnYbSoM7eJdM8gjyHW6
bJUMmooYzrsA/jZFWZ6/JPLP4STAf9XTeEouhG5ZkRG2bT/SpHyzjB1eY57EKeCD
/ivTohM+WPSiHdKndl9c
-----END CERTIFICATE-----
