Certificate:
    Data:
        Version: 3 (0x2)
        Serial Number: 21 (0x15)
        Signature Algorithm: sha1WithRSAEncryption
        Issuer: C=US, ST=NC, L=Raleigh, O=Fedora Project, OU=fedmsg, CN=fedmsg/name=fedmsg/emailAddress=admin@fedoraproject.org
        Validity
            Not Before: Jul 15 21:18:53 2012 GMT
            Not After : Jul 13 21:18:53 2022 GMT
        Subject: C=US, ST=NC, L=Raleigh, O=Fedora Project, OU=fedmsg, CN=bodhi-app02.phx2.fedoraproject.org/name=bodhi-app02.phx2.fedoraproject.org/emailAddress=admin@fedoraproject.org
        Subject Public Key Info:
            Public Key Algorithm: rsaEncryption
                Public-Key: (1024 bit)
                Modulus:
                    00:d9:b1:07:22:2d:26:46:b9:33:8a:4b:c6:5c:92:
                    06:2a:cf:c2:90:5a:36:b8:fc:81:48:b2:ab:97:56:
                    43:eb:b3:8d:76:ca:12:57:c6:56:90:92:13:70:43:
                    d7:65:9a:52:61:cd:69:d9:76:aa:64:29:c9:09:49:
                    83:9e:03:b2:1f:25:26:e1:b5:be:b5:98:c8:09:71:
                    31:cd:84:5b:cf:1c:8a:37:4b:12:0f:b7:c5:95:9d:
                    d1:a2:00:a0:78:7f:86:80:c0:e6:05:b2:9b:f7:0d:
                    77:c3:cb:7c:d9:db:b9:63:b0:12:29:a0:05:ee:4f:
                    61:76:55:ca:0c:ea:a2:bd:13
                Exponent: 65537 (0x10001)
        X509v3 extensions:
            X509v3 Basic Constraints: 
                CA:FALSE
            Netscape Comment: 
                Easy-RSA Generated Certificate
            X509v3 Subject Key Identifier: 
                84:80:BF:15:57:CB:7E:84:06:34:8E:81:73:0F:2F:7D:82:E1:ED:CC
            X509v3 Authority Key Identifier: 
                keyid:00:98:A5:D5:E7:C4:55:0E:84:A3:67:FE:66:4A:16:E0:04:15:DD:21
                DirName:/C=US/ST=NC/L=Raleigh/O=Fedora Project/OU=fedmsg/CN=fedmsg/name=fedmsg/emailAddress=admin@fedoraproject.org
                serial:8E:EB:28:D8:A9:13:9D:7C

            X509v3 Extended Key Usage: 
                TLS Web Client Authentication
            X509v3 Key Usage: 
                Digital Signature
    Signature Algorithm: sha1WithRSAEncryption
        c6:62:0a:ac:71:8c:48:32:38:40:4f:e9:7d:08:19:a7:28:12:
        d9:18:c6:30:04:b3:93:6f:b1:11:03:96:69:b3:60:70:bc:bb:
        2f:52:61:28:09:c4:da:b3:a4:b9:29:16:34:b9:ce:e8:ec:77:
        f0:d4:93:09:c3:5e:08:aa:8a:da:88:39:6b:79:88:c9:a2:d1:
        8f:59:a5:78:66:43:eb:86:50:96:ee:25:4a:8b:7e:67:54:32:
        60:76:a6:90:a3:d7:b2:8e:0b:d2:eb:61:29:50:db:05:e9:92:
        64:98:db:d2:99:3d:f0:66:66:b1:bd:23:7b:16:10:78:97:ea:
        b9:c3
-----BEGIN CERTIFICATE-----
MIIESTCCA7KgAwIBAgIBFTANBgkqhkiG9w0BAQUFADCBoDELMAkGA1UEBhMCVVMx
CzAJBgNVBAgTAk5DMRAwDgYDVQQHEwdSYWxlaWdoMRcwFQYDVQQKEw5GZWRvcmEg
UHJvamVjdDEPMA0GA1UECxMGZmVkbXNnMQ8wDQYDVQQDEwZmZWRtc2cxDzANBgNV
BCkTBmZlZG1zZzEmMCQGCSqGSIb3DQEJARYXYWRtaW5AZmVkb3JhcHJvamVjdC5v
cmcwHhcNMTIwNzE1MjExODUzWhcNMjIwNzEzMjExODUzWjCB2DELMAkGA1UEBhMC
VVMxCzAJBgNVBAgTAk5DMRAwDgYDVQQHEwdSYWxlaWdoMRcwFQYDVQQKEw5GZWRv
cmEgUHJvamVjdDEPMA0GA1UECxMGZmVkbXNnMSswKQYDVQQDEyJib2RoaS1hcHAw
Mi5waHgyLmZlZG9yYXByb2plY3Qub3JnMSswKQYDVQQpEyJib2RoaS1hcHAwMi5w
aHgyLmZlZG9yYXByb2plY3Qub3JnMSYwJAYJKoZIhvcNAQkBFhdhZG1pbkBmZWRv
cmFwcm9qZWN0Lm9yZzCBnzANBgkqhkiG9w0BAQEFAAOBjQAwgYkCgYEA2bEHIi0m
RrkzikvGXJIGKs/CkFo2uPyBSLKrl1ZD67ONdsoSV8ZWkJITcEPXZZpSYc1p2Xaq
ZCnJCUmDngOyHyUm4bW+tZjICXExzYRbzxyKN0sSD7fFlZ3RogCgeH+GgMDmBbKb
9w13w8t82du5Y7ASKaAF7k9hdlXKDOqivRMCAwEAAaOCAVcwggFTMAkGA1UdEwQC
MAAwLQYJYIZIAYb4QgENBCAWHkVhc3ktUlNBIEdlbmVyYXRlZCBDZXJ0aWZpY2F0
ZTAdBgNVHQ4EFgQUhIC/FVfLfoQGNI6Bcw8vfYLh7cwwgdUGA1UdIwSBzTCByoAU
AJil1efEVQ6Eo2f+ZkoW4AQV3SGhgaakgaMwgaAxCzAJBgNVBAYTAlVTMQswCQYD
VQQIEwJOQzEQMA4GA1UEBxMHUmFsZWlnaDEXMBUGA1UEChMORmVkb3JhIFByb2pl
Y3QxDzANBgNVBAsTBmZlZG1zZzEPMA0GA1UEAxMGZmVkbXNnMQ8wDQYDVQQpEwZm
ZWRtc2cxJjAkBgkqhkiG9w0BCQEWF2FkbWluQGZlZG9yYXByb2plY3Qub3JnggkA
juso2KkTnXwwEwYDVR0lBAwwCgYIKwYBBQUHAwIwCwYDVR0PBAQDAgeAMA0GCSqG
SIb3DQEBBQUAA4GBAMZiCqxxjEgyOEBP6X0IGacoEtkYxjAEs5NvsREDlmmzYHC8
uy9SYSgJxNqzpLkpFjS5zujsd/DUkwnDXgiqitqIOWt5iMmi0Y9ZpXhmQ+uGUJbu
JUqLfmdUMmB2ppCj17KOC9LrYSlQ2wXpkmSY29KZPfBmZrG9I3sWEHiX6rnD
-----END CERTIFICATE-----
