Certificate:
    Data:
        Version: 3 (0x2)
        Serial Number: 22 (0x16)
        Signature Algorithm: sha256WithRSAEncryption
        Issuer: C=US, ST=NC, L=Raleigh, O=Fedora Project, OU=fedmsg, CN=fedmsg/name=fedmsg/emailAddress=admin@fedoraproject.org
        Validity
            Not Before: Feb 20 11:43:13 2023 GMT
            Not After : Feb 17 11:43:13 2033 GMT
        Subject: C=US, ST=NC, L=Raleigh, O=Fedora Project, OU=fedmsg, CN=bodhi-app03.phx2.fedoraproject.org/name=bodhi-app03.phx2.fedoraproject.org/emailAddress=admin@fedoraproject.org
        Subject Public Key Info:
            Public Key Algorithm: rsaEncryption
                Public-Key: (1024 bit)
                Modulus:
                    00:b7:99:18:22:31:65:43:64:a4:d2:53:f4:ba:9c:
                    75:99:57:f2:47:61:24:f8:e8:0f:af:d2:eb:bb:53:
                    de:d8:99:52:70:c3:89:af:7a:ad:c2:bc:6f:c0:a0:
                    97:9b:dc:66:9c:22:87:5a:6a:9d:5a:e9:30:a5:d1:
                    99:b0:55:62:e0:4c:88:27:63:8a:6d:14:49:58:0a:
                    1e:94:7e:85:12:1a:f0:12:77:e9:f9:be:21:9f:bf:
                    72:96:e0:a9:8e:44:f2:c8:a4:f3:73:64:4f:e5:4f:
                    21:fe:a0:99:17:5f:02:0c:41:ca:87:6b:05:ce:12:
                    e9:9d:a7:88:c0:b2:93:3a:0d
                Exponent: 65537 (0x10001)
        X509v3 extensions:
            X509v3 Basic Constraints: 
                CA:FALSE
            Netscape Comment: 
                Easy-RSA Generated Certificate
            X509v3 Subject Key Identifier: 
                CD:54:B1:92:C6:55:31:E1:2C:F8:C8:F3:C5:2B:35:CB:BC:09:3D:AD
            X509v3 Authority Key Identifier: 
                keyid:85:3B:0B:B5:86:22:32:DD:BD:F8:E1:7C:89:C3:20:AD:CA:44:B5:38
                DirName:/C=US/ST=NC/L=Raleigh/O=Fedora Project/OU=fedmsg/CN=fedmsg/name=fedmsg/emailAddress=admin@fedoraproject.org
                serial:31:18:5F:9A:5C:BE:C6:64:1E:FD:20:B3:37:B2:B2:16:FB:E0:C0:F6
            X509v3 Extended Key Usage: 
                TLS Web Client Authentication
            X509v3 Key Usage: 
                Digital Signature
    Signature Algorithm: sha256WithRSAEncryption
    Signature Value:
        25:22:a9:90:0e:e4:49:80:ad:be:dd:f3:2e:5e:f5:82:65:ec:
        f7:6b:09:30:e5:98:3e:3a:99:4a:62:8c:9c:c5:6a:08:cb:ad:
        5e:c7:d9:96:56:a3:02:94:b9:ac:bd:c9:2f:90:c1:25:4c:ba:
        36:b2:e2:ea:42:7a:83:29:ac:c7:e8:e8:55:10:54:ba:7a:ea:
        04:12:7f:78:3d:5d:48:cb:df:3f:96:97:ee:8c:39:f7:3a:e7:
        97:8e:56:6e:d5:96:f8:5c:83:17:6f:9d:30:f7:56:97:e7:19:
        11:7d:be:62:0b:0e:b2:bd:14:f6:b4:bd:aa:2d:5c:2a:6c:b1:
        5f:b5
-----BEGIN CERTIFICATE-----
MIIEVDCCA72gAwIBAgIBFjANBgkqhkiG9w0BAQsFADCBoDELMAkGA1UEBhMCVVMx
CzAJBgNVBAgTAk5DMRAwDgYDVQQHEwdSYWxlaWdoMRcwFQYDVQQKEw5GZWRvcmEg
UHJvamVjdDEPMA0GA1UECxMGZmVkbXNnMQ8wDQYDVQQDEwZmZWRtc2cxDzANBgNV
BCkTBmZlZG1zZzEmMCQGCSqGSIb3DQEJARYXYWRtaW5AZmVkb3JhcHJvamVjdC5v
cmcwHhcNMjMwMjIwMTE0MzEzWhcNMzMwMjE3MTE0MzEzWjCB2DELMAkGA1UEBhMC
VVMxCzAJBgNVBAgTAk5DMRAwDgYDVQQHEwdSYWxlaWdoMRcwFQYDVQQKEw5GZWRv
cmEgUHJvamVjdDEPMA0GA1UECxMGZmVkbXNnMSswKQYDVQQDEyJib2RoaS1hcHAw
My5waHgyLmZlZG9yYXByb2plY3Qub3JnMSswKQYDVQQpEyJib2RoaS1hcHAwMy5w
aHgyLmZlZG9yYXByb2plY3Qub3JnMSYwJAYJKoZIhvcNAQkBFhdhZG1pbkBmZWRv
cmFwcm9qZWN0Lm9yZzCBnzANBgkqhkiG9w0BAQEFAAOBjQAwgYkCgYEAt5kYIjFl
Q2Sk0lP0upx1mVfyR2Ek+OgPr9Lru1Pe2JlScMOJr3qtwrxvwKCXm9xmnCKHWmqd
WukwpdGZsFVi4EyIJ2OKbRRJWAoelH6FEhrwEnfp+b4hn79yluCpjkTyyKTzc2RP
5U8h/qCZF18CDEHKh2sFzhLpnaeIwLKTOg0CAwEAAaOCAWIwggFeMAkGA1UdEwQC
MAAwLQYJYIZIAYb4QgENBCAWHkVhc3ktUlNBIEdlbmVyYXRlZCBDZXJ0aWZpY2F0
ZTAdBgNVHQ4EFgQUzVSxksZVMeEs+MjzxSs1y7wJPa0wgeAGA1UdIwSB2DCB1YAU
hTsLtYYiMt29+OF8icMgrcpEtTihgaakgaMwgaAxCzAJBgNVBAYTAlVTMQswCQYD
VQQIEwJOQzEQMA4GA1UEBxMHUmFsZWlnaDEXMBUGA1UEChMORmVkb3JhIFByb2pl
Y3QxDzANBgNVBAsTBmZlZG1zZzEPMA0GA1UEAxMGZmVkbXNnMQ8wDQYDVQQpEwZm
ZWRtc2cxJjAkBgkqhkiG9w0BCQEWF2FkbWluQGZlZG9yYXByb2plY3Qub3JnghQx
GF+aXL7GZB79ILM3srIW++DA9jATBgNVHSUEDDAKBggrBgEFBQcDAjALBgNVHQ8E
BAMCB4AwDQYJKoZIhvcNAQELBQADgYEAJSKpkA7kSYCtvt3zLl71gmXs92sJMOWY
PjqZSmKMnMVqCMutXsfZllajApS5rL3JL5DBJUy6NrLi6kJ6gymsx+joVRBUunrq
BBJ/eD1dSMvfP5aX7ow59zrnl45WbtWW+FyDF2+dMPdWl+cZEX2+YgsOsr0U9rS9
qi1cKmyxX7U=
-----END CERTIFICATE-----
