Certificate:
    Data:
        Version: 3 (0x2)
        Serial Number: 27 (0x1b)
        Signature Algorithm: sha1WithRSAEncryption
        Issuer: C=US, ST=NC, L=Raleigh, O=Fedora Project, OU=fedmsg, CN=fedmsg/name=fedmsg/emailAddress=admin@fedoraproject.org
        Validity
            Not Before: Jul 15 21:18:53 2012 GMT
            Not After : Jul 13 21:18:53 2022 GMT
        Subject: C=US, ST=NC, L=Raleigh, O=Fedora Project, OU=fedmsg, CN=bodhi-app01.stg.phx2.fedoraproject.org/name=bodhi-app01.stg.phx2.fedoraproject.org/emailAddress=admin@fedoraproject.org
        Subject Public Key Info:
            Public Key Algorithm: rsaEncryption
                Public-Key: (1024 bit)
                Modulus:
                    00:ab:ae:73:d5:a8:59:9b:56:0f:9a:93:ba:61:65:
                    4a:0f:b7:1c:0b:cb:01:28:ed:49:4c:93:f8:b5:13:
                    55:56:ab:b5:96:3a:e6:05:eb:28:01:06:52:3f:ee:
                    83:44:92:de:c2:9a:30:66:df:45:2e:8b:f4:aa:e0:
                    41:78:a6:84:94:58:b8:35:55:44:2f:37:46:e6:b5:
                    c1:40:02:ab:ab:b8:90:6a:a2:61:5d:4f:d3:8d:32:
                    ca:75:37:13:6f:e1:54:42:d6:b5:d0:73:a6:6b:65:
                    f2:b2:70:76:0f:eb:33:0e:2c:c0:12:6c:9a:b6:ad:
                    16:47:74:47:33:47:99:0b:0f
                Exponent: 65537 (0x10001)
        X509v3 extensions:
            X509v3 Basic Constraints: 
                CA:FALSE
            Netscape Comment: 
                Easy-RSA Generated Certificate
            X509v3 Subject Key Identifier: 
                33:67:11:D6:5C:18:7A:EF:0F:21:38:02:06:67:CA:7C:8B:09:BC:66
            X509v3 Authority Key Identifier: 
                keyid:00:98:A5:D5:E7:C4:55:0E:84:A3:67:FE:66:4A:16:E0:04:15:DD:21
                DirName:/C=US/ST=NC/L=Raleigh/O=Fedora Project/OU=fedmsg/CN=fedmsg/name=fedmsg/emailAddress=admin@fedoraproject.org
                serial:8E:EB:28:D8:A9:13:9D:7C

            X509v3 Extended Key Usage: 
                TLS Web Client Authentication
            X509v3 Key Usage: 
                Digital Signature
    Signature Algorithm: sha1WithRSAEncryption
        3e:43:96:43:7d:f8:3d:d1:82:23:9a:be:8e:23:e0:3f:b2:be:
        e6:87:b0:46:98:e2:53:2a:8f:c4:1c:71:33:cf:f2:96:01:4d:
        11:51:ea:73:17:bf:7a:cd:c9:77:e8:53:73:84:12:8d:bb:9d:
        19:2f:65:1c:54:ba:ff:ff:b4:ea:ff:26:02:80:8a:00:2b:3e:
        6e:57:c2:e1:76:ef:ca:8c:60:4d:ce:a3:b1:20:1c:95:33:d6:
        e4:5f:7e:b2:fa:94:8f:01:d3:48:4f:42:63:0e:61:7b:3d:7a:
        2c:e1:d8:9d:48:e9:76:d6:d5:6a:da:a2:36:b8:d9:c9:e4:08:
        af:36
-----BEGIN CERTIFICATE-----
MIIEUTCCA7qgAwIBAgIBGzANBgkqhkiG9w0BAQUFADCBoDELMAkGA1UEBhMCVVMx
CzAJBgNVBAgTAk5DMRAwDgYDVQQHEwdSYWxlaWdoMRcwFQYDVQQKEw5GZWRvcmEg
UHJvamVjdDEPMA0GA1UECxMGZmVkbXNnMQ8wDQYDVQQDEwZmZWRtc2cxDzANBgNV
BCkTBmZlZG1zZzEmMCQGCSqGSIb3DQEJARYXYWRtaW5AZmVkb3JhcHJvamVjdC5v
cmcwHhcNMTIwNzE1MjExODUzWhcNMjIwNzEzMjExODUzWjCB4DELMAkGA1UEBhMC
VVMxCzAJBgNVBAgTAk5DMRAwDgYDVQQHEwdSYWxlaWdoMRcwFQYDVQQKEw5GZWRv
cmEgUHJvamVjdDEPMA0GA1UECxMGZmVkbXNnMS8wLQYDVQQDEyZib2RoaS1hcHAw
MS5zdGcucGh4Mi5mZWRvcmFwcm9qZWN0Lm9yZzEvMC0GA1UEKRMmYm9kaGktYXBw
MDEuc3RnLnBoeDIuZmVkb3JhcHJvamVjdC5vcmcxJjAkBgkqhkiG9w0BCQEWF2Fk
bWluQGZlZG9yYXByb2plY3Qub3JnMIGfMA0GCSqGSIb3DQEBAQUAA4GNADCBiQKB
gQCrrnPVqFmbVg+ak7phZUoPtxwLywEo7UlMk/i1E1VWq7WWOuYF6ygBBlI/7oNE
kt7CmjBm30Uui/Sq4EF4poSUWLg1VUQvN0bmtcFAAquruJBqomFdT9ONMsp1NxNv
4VRC1rXQc6ZrZfKycHYP6zMOLMASbJq2rRZHdEczR5kLDwIDAQABo4IBVzCCAVMw
CQYDVR0TBAIwADAtBglghkgBhvhCAQ0EIBYeRWFzeS1SU0EgR2VuZXJhdGVkIENl
cnRpZmljYXRlMB0GA1UdDgQWBBQzZxHWXBh67w8hOAIGZ8p8iwm8ZjCB1QYDVR0j
BIHNMIHKgBQAmKXV58RVDoSjZ/5mShbgBBXdIaGBpqSBozCBoDELMAkGA1UEBhMC
VVMxCzAJBgNVBAgTAk5DMRAwDgYDVQQHEwdSYWxlaWdoMRcwFQYDVQQKEw5GZWRv
cmEgUHJvamVjdDEPMA0GA1UECxMGZmVkbXNnMQ8wDQYDVQQDEwZmZWRtc2cxDzAN
BgNVBCkTBmZlZG1zZzEmMCQGCSqGSIb3DQEJARYXYWRtaW5AZmVkb3JhcHJvamVj
dC5vcmeCCQCO6yjYqROdfDATBgNVHSUEDDAKBggrBgEFBQcDAjALBgNVHQ8EBAMC
B4AwDQYJKoZIhvcNAQEFBQADgYEAPkOWQ334PdGCI5q+jiPgP7K+5oewRpjiUyqP
xBxxM8/ylgFNEVHqcxe/es3Jd+hTc4QSjbudGS9lHFS6//+06v8mAoCKACs+blfC
4XbvyoxgTc6jsSAclTPW5F9+svqUjwHTSE9CYw5hez16LOHYnUjpdtbVatqiNrjZ
yeQIrzY=
-----END CERTIFICATE-----
