Certificate:
    Data:
        Version: 3 (0x2)
        Serial Number: 29 (0x1d)
        Signature Algorithm: sha256WithRSAEncryption
        Issuer: C=US, ST=NC, L=Raleigh, O=Fedora Project, OU=fedmsg, CN=fedmsg/name=fedmsg/emailAddress=admin@fedoraproject.org
        Validity
            Not Before: Feb 20 11:43:13 2023 GMT
            Not After : Feb 17 11:43:13 2033 GMT
        Subject: C=US, ST=NC, L=Raleigh, O=Fedora Project, OU=fedmsg, CN=mediawiki-app01.phx2.fedoraproject.org/name=mediawiki-app01.phx2.fedoraproject.org/emailAddress=admin@fedoraproject.org
        Subject Public Key Info:
            Public Key Algorithm: rsaEncryption
                Public-Key: (1024 bit)
                Modulus:
                    00:b3:c0:44:2d:30:1d:3e:57:2f:23:ef:c1:30:11:
                    14:ad:30:c1:2b:46:3c:6a:1a:1f:f5:7e:ac:58:95:
                    9f:84:58:d9:a9:21:e8:56:c7:9b:aa:0c:03:cb:ae:
                    e7:30:c5:36:4f:e8:ee:ca:7a:b9:9b:3d:90:c3:a0:
                    5c:9c:54:0b:aa:42:27:10:34:c6:72:58:c4:1b:e2:
                    75:e8:32:d3:6f:16:5d:d2:b8:75:a7:c9:e4:fd:c4:
                    e1:dc:48:bb:88:9c:b6:83:d5:0b:9a:61:47:b0:63:
                    39:c4:99:97:a7:6a:39:b6:96:84:d7:06:a6:59:e7:
                    46:60:9e:62:d7:6d:95:52:f7
                Exponent: 65537 (0x10001)
        X509v3 extensions:
            X509v3 Basic Constraints: 
                CA:FALSE
            Netscape Comment: 
                Easy-RSA Generated Certificate
            X509v3 Subject Key Identifier: 
                82:D1:13:7B:A6:88:6A:9A:B1:63:71:52:9C:F4:FE:DD:C7:0D:B7:33
            X509v3 Authority Key Identifier: 
                keyid:85:3B:0B:B5:86:22:32:DD:BD:F8:E1:7C:89:C3:20:AD:CA:44:B5:38
                DirName:/C=US/ST=NC/L=Raleigh/O=Fedora Project/OU=fedmsg/CN=fedmsg/name=fedmsg/emailAddress=admin@fedoraproject.org
                serial:31:18:5F:9A:5C:BE:C6:64:1E:FD:20:B3:37:B2:B2:16:FB:E0:C0:F6
            X509v3 Extended Key Usage: 
                TLS Web Client Authentication
            X509v3 Key Usage: 
                Digital Signature
    Signature Algorithm: sha256WithRSAEncryption
    Signature Value:
        49:92:55:31:3f:0d:6c:bd:56:ca:51:23:17:e0:15:03:9c:8c:
        b8:57:c7:c1:83:16:c8:9d:cf:55:d7:34:44:63:a4:52:a3:65:
        aa:a8:8c:5a:73:f1:2b:39:3b:cd:b8:9d:99:75:35:7a:fa:57:
        1d:2d:97:43:97:99:46:d5:1b:12:9a:a3:0d:fa:1b:5d:2b:6e:
        c7:a7:d8:c1:0c:ae:d8:85:9a:22:47:58:ab:63:01:fa:8c:0d:
        16:64:19:81:c8:06:40:8b:ed:b0:61:69:d7:b6:5e:d9:39:85:
        a7:b1:af:d7:ce:e7:25:39:8b:a4:6e:93:0e:11:a9:52:bb:49:
        d8:90
-----BEGIN CERTIFICATE-----
MIIEXDCCA8WgAwIBAgIBHTANBgkqhkiG9w0BAQsFADCBoDELMAkGA1UEBhMCVVMx
CzAJBgNVBAgTAk5DMRAwDgYDVQQHEwdSYWxlaWdoMRcwFQYDVQQKEw5GZWRvcmEg
UHJvamVjdDEPMA0GA1UECxMGZmVkbXNnMQ8wDQYDVQQDEwZmZWRtc2cxDzANBgNV
BCkTBmZlZG1zZzEmMCQGCSqGSIb3DQEJARYXYWRtaW5AZmVkb3JhcHJvamVjdC5v
cmcwHhcNMjMwMjIwMTE0MzEzWhcNMzMwMjE3MTE0MzEzWjCB4DELMAkGA1UEBhMC
VVMxCzAJBgNVBAgTAk5DMRAwDgYDVQQHEwdSYWxlaWdoMRcwFQYDVQQKEw5GZWRv
cmEgUHJvamVjdDEPMA0GA1UECxMGZmVkbXNnMS8wLQYDVQQDEyZtZWRpYXdpa2kt
YXBwMDEucGh4Mi5mZWRvcmFwcm9qZWN0Lm9yZzEvMC0GA1UEKRMmbWVkaWF3aWtp
LWFwcDAxLnBoeDIuZmVkb3JhcHJvamVjdC5vcmcxJjAkBgkqhkiG9w0BCQEWF2Fk
bWluQGZlZG9yYXByb2plY3Qub3JnMIGfMA0GCSqGSIb3DQEBAQUAA4GNADCBiQKB
gQCzwEQtMB0+Vy8j78EwERStMMErRjxqGh/1fqxYlZ+EWNmpIehWx5uqDAPLrucw
xTZP6O7KermbPZDDoFycVAuqQicQNMZyWMQb4nXoMtNvFl3SuHWnyeT9xOHcSLuI
nLaD1QuaYUewYznEmZenajm2loTXBqZZ50ZgnmLXbZVS9wIDAQABo4IBYjCCAV4w
CQYDVR0TBAIwADAtBglghkgBhvhCAQ0EIBYeRWFzeS1SU0EgR2VuZXJhdGVkIENl
cnRpZmljYXRlMB0GA1UdDgQWBBSC0RN7pohqmrFjcVKc9P7dxw23MzCB4AYDVR0j
BIHYMIHVgBSFOwu1hiIy3b344XyJwyCtykS1OKGBpqSBozCBoDELMAkGA1UEBhMC
VVMxCzAJBgNVBAgTAk5DMRAwDgYDVQQHEwdSYWxlaWdoMRcwFQYDVQQKEw5GZWRv
cmEgUHJvamVjdDEPMA0GA1UECxMGZmVkbXNnMQ8wDQYDVQQDEwZmZWRtc2cxDzAN
BgNVBCkTBmZlZG1zZzEmMCQGCSqGSIb3DQEJARYXYWRtaW5AZmVkb3JhcHJvamVj
dC5vcmeCFDEYX5pcvsZkHv0gszeyshb74MD2MBMGA1UdJQQMMAoGCCsGAQUFBwMC
MAsGA1UdDwQEAwIHgDANBgkqhkiG9w0BAQsFAAOBgQBJklUxPw1svVbKUSMX4BUD
nIy4V8fBgxbInc9V1zREY6RSo2WqqIxac/ErOTvNuJ2ZdTV6+lcdLZdDl5lG1RsS
mqMN+htdK27Hp9jBDK7YhZoiR1irYwH6jA0WZBmByAZAi+2wYWnXtl7ZOYWnsa/X
zuclOYukbpMOEalSu0nYkA==
-----END CERTIFICATE-----
