Certificate:
    Data:
        Version: 3 (0x2)
        Serial Number: 30 (0x1e)
        Signature Algorithm: sha256WithRSAEncryption
        Issuer: C=US, ST=NC, L=Raleigh, O=Fedora Project, OU=fedmsg, CN=fedmsg/name=fedmsg/emailAddress=admin@fedoraproject.org
        Validity
            Not Before: Feb 20 11:43:13 2023 GMT
            Not After : Feb 17 11:43:13 2033 GMT
        Subject: C=US, ST=NC, L=Raleigh, O=Fedora Project, OU=fedmsg, CN=mediawiki-app02.phx2.fedoraproject.org/name=mediawiki-app02.phx2.fedoraproject.org/emailAddress=admin@fedoraproject.org
        Subject Public Key Info:
            Public Key Algorithm: rsaEncryption
                Public-Key: (1024 bit)
                Modulus:
                    00:eb:49:70:f6:fa:85:c4:54:27:3d:7c:ff:49:88:
                    75:eb:09:a2:bb:5b:a9:fa:b0:14:82:3a:b4:0c:5d:
                    fa:ee:0e:29:a5:a8:5f:f1:51:d1:5e:c6:8c:b4:14:
                    ce:c9:eb:f7:65:df:18:43:58:d1:a6:39:af:8b:65:
                    39:7f:4d:35:d7:69:47:f3:59:31:36:56:c6:79:f1:
                    a4:08:b8:7b:ff:fe:25:b2:fa:0e:7a:17:ab:63:db:
                    46:06:81:1b:9d:09:38:e3:77:27:09:ba:70:52:72:
                    a4:8e:89:1a:a4:d8:f3:44:a3:78:b9:cd:a4:54:fa:
                    10:1d:52:5b:21:4c:ea:d0:0b
                Exponent: 65537 (0x10001)
        X509v3 extensions:
            X509v3 Basic Constraints: 
                CA:FALSE
            Netscape Comment: 
                Easy-RSA Generated Certificate
            X509v3 Subject Key Identifier: 
                39:E1:CA:EF:7A:65:37:25:AE:71:AD:13:1B:3F:74:31:3A:A1:0F:09
            X509v3 Authority Key Identifier: 
                keyid:85:3B:0B:B5:86:22:32:DD:BD:F8:E1:7C:89:C3:20:AD:CA:44:B5:38
                DirName:/C=US/ST=NC/L=Raleigh/O=Fedora Project/OU=fedmsg/CN=fedmsg/name=fedmsg/emailAddress=admin@fedoraproject.org
                serial:31:18:5F:9A:5C:BE:C6:64:1E:FD:20:B3:37:B2:B2:16:FB:E0:C0:F6
            X509v3 Extended Key Usage: 
                TLS Web Client Authentication
            X509v3 Key Usage: 
                Digital Signature
    Signature Algorithm: sha256WithRSAEncryption
    Signature Value:
        83:65:92:11:ba:63:92:06:de:8d:89:65:d1:af:d0:e5:82:b1:
        d7:c8:09:9b:63:da:86:b5:ee:39:1b:0e:44:6c:03:57:5f:71:
        b8:20:c6:4c:fe:23:a9:b3:f9:4b:80:d6:6c:bd:a7:2c:02:ef:
        be:2b:1f:bb:d1:d9:bc:20:35:16:ac:49:c7:35:31:39:c6:87:
        09:d1:12:15:af:9d:de:bb:04:e3:4f:3f:d7:46:20:4b:df:fb:
        a2:45:b4:35:50:94:06:16:ca:be:6a:ea:15:57:62:83:60:8c:
        0e:97:1e:c5:01:2c:4d:ca:6e:3f:4c:66:f4:11:c4:1c:23:fc:
        64:b6
-----BEGIN CERTIFICATE-----
MIIEXDCCA8WgAwIBAgIBHjANBgkqhkiG9w0BAQsFADCBoDELMAkGA1UEBhMCVVMx
CzAJBgNVBAgTAk5DMRAwDgYDVQQHEwdSYWxlaWdoMRcwFQYDVQQKEw5GZWRvcmEg
UHJvamVjdDEPMA0GA1UECxMGZmVkbXNnMQ8wDQYDVQQDEwZmZWRtc2cxDzANBgNV
BCkTBmZlZG1zZzEmMCQGCSqGSIb3DQEJARYXYWRtaW5AZmVkb3JhcHJvamVjdC5v
cmcwHhcNMjMwMjIwMTE0MzEzWhcNMzMwMjE3MTE0MzEzWjCB4DELMAkGA1UEBhMC
VVMxCzAJBgNVBAgTAk5DMRAwDgYDVQQHEwdSYWxlaWdoMRcwFQYDVQQKEw5GZWRv
cmEgUHJvamVjdDEPMA0GA1UECxMGZmVkbXNnMS8wLQYDVQQDEyZtZWRpYXdpa2kt
YXBwMDIucGh4Mi5mZWRvcmFwcm9qZWN0Lm9yZzEvMC0GA1UEKRMmbWVkaWF3aWtp
LWFwcDAyLnBoeDIuZmVkb3JhcHJvamVjdC5vcmcxJjAkBgkqhkiG9w0BCQEWF2Fk
bWluQGZlZG9yYXByb2plY3Qub3JnMIGfMA0GCSqGSIb3DQEBAQUAA4GNADCBiQKB
gQDrSXD2+oXEVCc9fP9JiHXrCaK7W6n6sBSCOrQMXfruDimlqF/xUdFexoy0FM7J
6/dl3xhDWNGmOa+LZTl/TTXXaUfzWTE2VsZ58aQIuHv//iWy+g56F6tj20YGgRud
CTjjdycJunBScqSOiRqk2PNEo3i5zaRU+hAdUlshTOrQCwIDAQABo4IBYjCCAV4w
CQYDVR0TBAIwADAtBglghkgBhvhCAQ0EIBYeRWFzeS1SU0EgR2VuZXJhdGVkIENl
cnRpZmljYXRlMB0GA1UdDgQWBBQ54crvemU3Ja5xrRMbP3QxOqEPCTCB4AYDVR0j
BIHYMIHVgBSFOwu1hiIy3b344XyJwyCtykS1OKGBpqSBozCBoDELMAkGA1UEBhMC
VVMxCzAJBgNVBAgTAk5DMRAwDgYDVQQHEwdSYWxlaWdoMRcwFQYDVQQKEw5GZWRv
cmEgUHJvamVjdDEPMA0GA1UECxMGZmVkbXNnMQ8wDQYDVQQDEwZmZWRtc2cxDzAN
BgNVBCkTBmZlZG1zZzEmMCQGCSqGSIb3DQEJARYXYWRtaW5AZmVkb3JhcHJvamVj
dC5vcmeCFDEYX5pcvsZkHv0gszeyshb74MD2MBMGA1UdJQQMMAoGCCsGAQUFBwMC
MAsGA1UdDwQEAwIHgDANBgkqhkiG9w0BAQsFAAOBgQCDZZIRumOSBt6NiWXRr9Dl
grHXyAmbY9qGte45Gw5EbANXX3G4IMZM/iOps/lLgNZsvacsAu++Kx+70dm8IDUW
rEnHNTE5xocJ0RIVr53euwTjTz/XRiBL3/uiRbQ1UJQGFsq+auoVV2KDYIwOlx7F
ASxNym4/TGb0EcQcI/xktg==
-----END CERTIFICATE-----
