Certificate:
    Data:
        Version: 3 (0x2)
        Serial Number: 32 (0x20)
        Signature Algorithm: sha1WithRSAEncryption
        Issuer: C=US, ST=NC, L=Raleigh, O=Fedora Project, OU=fedmsg, CN=fedmsg/name=fedmsg/emailAddress=admin@fedoraproject.org
        Validity
            Not Before: Jul 15 21:18:54 2012 GMT
            Not After : Jul 13 21:18:54 2022 GMT
        Subject: C=US, ST=NC, L=Raleigh, O=Fedora Project, OU=fedmsg, CN=mediawiki-app04.phx2.fedoraproject.org/name=mediawiki-app04.phx2.fedoraproject.org/emailAddress=admin@fedoraproject.org
        Subject Public Key Info:
            Public Key Algorithm: rsaEncryption
                Public-Key: (1024 bit)
                Modulus:
                    00:eb:55:b8:4b:6f:d0:85:8e:b6:ce:92:e4:09:d0:
                    4a:d4:2b:e9:47:3a:b6:27:57:61:27:64:b4:71:46:
                    79:1e:04:33:54:23:72:59:48:e4:73:86:2b:68:33:
                    85:a9:3a:85:d2:9e:7a:1a:89:c9:a0:0c:1a:b9:ad:
                    e3:25:b2:f1:17:1b:85:83:07:56:03:b2:e2:1a:32:
                    fd:17:3f:90:c2:f9:1d:39:f7:22:5a:77:c3:61:35:
                    a3:fe:64:9f:5b:a7:20:89:60:4c:70:51:af:34:c8:
                    01:f7:c9:ef:76:02:0d:7d:69:f5:9b:11:05:5f:89:
                    9c:4b:ff:d6:eb:e7:96:73:03
                Exponent: 65537 (0x10001)
        X509v3 extensions:
            X509v3 Basic Constraints: 
                CA:FALSE
            Netscape Comment: 
                Easy-RSA Generated Certificate
            X509v3 Subject Key Identifier: 
                05:2F:27:1F:0B:FE:55:17:3A:FA:C7:59:E3:EF:2A:96:9A:EC:49:49
            X509v3 Authority Key Identifier: 
                keyid:00:98:A5:D5:E7:C4:55:0E:84:A3:67:FE:66:4A:16:E0:04:15:DD:21
                DirName:/C=US/ST=NC/L=Raleigh/O=Fedora Project/OU=fedmsg/CN=fedmsg/name=fedmsg/emailAddress=admin@fedoraproject.org
                serial:8E:EB:28:D8:A9:13:9D:7C

            X509v3 Extended Key Usage: 
                TLS Web Client Authentication
            X509v3 Key Usage: 
                Digital Signature
    Signature Algorithm: sha1WithRSAEncryption
        f3:50:1d:7d:e5:e3:71:04:fb:cd:42:29:71:20:95:36:04:d4:
        45:f6:5e:14:4e:e8:f6:b9:8d:f1:53:82:a4:b8:28:a0:79:4d:
        db:3b:99:10:bc:50:c8:39:d7:b1:cd:49:c9:5f:9e:a4:f9:95:
        c4:41:68:5e:8b:65:d8:28:d1:81:cc:0c:57:ab:d8:95:3d:03:
        17:b3:5a:25:12:a7:b7:65:ed:fe:ec:48:4b:b6:b3:f7:ae:48:
        51:72:e0:55:45:8e:ef:ed:f7:50:73:f4:b4:ba:03:c9:be:68:
        3d:3b:7e:44:3b:ab:d9:2d:e2:5a:54:bf:bd:af:de:ca:17:b2:
        b3:c8
-----BEGIN CERTIFICATE-----
MIIEUTCCA7qgAwIBAgIBIDANBgkqhkiG9w0BAQUFADCBoDELMAkGA1UEBhMCVVMx
CzAJBgNVBAgTAk5DMRAwDgYDVQQHEwdSYWxlaWdoMRcwFQYDVQQKEw5GZWRvcmEg
UHJvamVjdDEPMA0GA1UECxMGZmVkbXNnMQ8wDQYDVQQDEwZmZWRtc2cxDzANBgNV
BCkTBmZlZG1zZzEmMCQGCSqGSIb3DQEJARYXYWRtaW5AZmVkb3JhcHJvamVjdC5v
cmcwHhcNMTIwNzE1MjExODU0WhcNMjIwNzEzMjExODU0WjCB4DELMAkGA1UEBhMC
VVMxCzAJBgNVBAgTAk5DMRAwDgYDVQQHEwdSYWxlaWdoMRcwFQYDVQQKEw5GZWRv
cmEgUHJvamVjdDEPMA0GA1UECxMGZmVkbXNnMS8wLQYDVQQDEyZtZWRpYXdpa2kt
YXBwMDQucGh4Mi5mZWRvcmFwcm9qZWN0Lm9yZzEvMC0GA1UEKRMmbWVkaWF3aWtp
LWFwcDA0LnBoeDIuZmVkb3JhcHJvamVjdC5vcmcxJjAkBgkqhkiG9w0BCQEWF2Fk
bWluQGZlZG9yYXByb2plY3Qub3JnMIGfMA0GCSqGSIb3DQEBAQUAA4GNADCBiQKB
gQDrVbhLb9CFjrbOkuQJ0ErUK+lHOrYnV2EnZLRxRnkeBDNUI3JZSORzhitoM4Wp
OoXSnnoaicmgDBq5reMlsvEXG4WDB1YDsuIaMv0XP5DC+R059yJad8NhNaP+ZJ9b
pyCJYExwUa80yAH3ye92Ag19afWbEQVfiZxL/9br55ZzAwIDAQABo4IBVzCCAVMw
CQYDVR0TBAIwADAtBglghkgBhvhCAQ0EIBYeRWFzeS1SU0EgR2VuZXJhdGVkIENl
cnRpZmljYXRlMB0GA1UdDgQWBBQFLycfC/5VFzr6x1nj7yqWmuxJSTCB1QYDVR0j
BIHNMIHKgBQAmKXV58RVDoSjZ/5mShbgBBXdIaGBpqSBozCBoDELMAkGA1UEBhMC
VVMxCzAJBgNVBAgTAk5DMRAwDgYDVQQHEwdSYWxlaWdoMRcwFQYDVQQKEw5GZWRv
cmEgUHJvamVjdDEPMA0GA1UECxMGZmVkbXNnMQ8wDQYDVQQDEwZmZWRtc2cxDzAN
BgNVBCkTBmZlZG1zZzEmMCQGCSqGSIb3DQEJARYXYWRtaW5AZmVkb3JhcHJvamVj
dC5vcmeCCQCO6yjYqROdfDATBgNVHSUEDDAKBggrBgEFBQcDAjALBgNVHQ8EBAMC
B4AwDQYJKoZIhvcNAQEFBQADgYEA81AdfeXjcQT7zUIpcSCVNgTURfZeFE7o9rmN
8VOCpLgooHlN2zuZELxQyDnXsc1JyV+epPmVxEFoXotl2CjRgcwMV6vYlT0DF7Na
JRKnt2Xt/uxIS7az965IUXLgVUWO7+33UHP0tLoDyb5oPTt+RDur2S3iWlS/va/e
yheys8g=
-----END CERTIFICATE-----
