Certificate:
    Data:
        Version: 3 (0x2)
        Serial Number: 33 (0x21)
        Signature Algorithm: sha1WithRSAEncryption
        Issuer: C=US, ST=NC, L=Raleigh, O=Fedora Project, OU=fedmsg, CN=fedmsg/name=fedmsg/emailAddress=admin@fedoraproject.org
        Validity
            Not Before: Jul 15 21:18:54 2012 GMT
            Not After : Jul 13 21:18:54 2022 GMT
        Subject: C=US, ST=NC, L=Raleigh, O=Fedora Project, OU=fedmsg, CN=mediawiki-app05.phx2.fedoraproject.org/name=mediawiki-app05.phx2.fedoraproject.org/emailAddress=admin@fedoraproject.org
        Subject Public Key Info:
            Public Key Algorithm: rsaEncryption
                Public-Key: (1024 bit)
                Modulus:
                    00:fb:3d:8a:7f:5e:83:c1:ab:47:75:ed:5c:00:09:
                    47:a8:7c:a4:98:88:49:27:26:e1:e1:18:01:28:7a:
                    85:d2:59:3c:c3:06:36:dc:46:60:f8:7b:49:bd:e5:
                    59:ad:10:89:b7:a6:b5:cf:a7:a4:ef:47:16:9d:32:
                    ca:55:0c:a6:65:e0:1f:97:88:23:31:60:ac:99:ac:
                    77:de:18:89:ac:ee:01:4c:29:46:e3:5d:b9:b9:b8:
                    b6:a4:17:d4:55:38:d7:23:89:52:5a:9a:3e:1b:70:
                    ca:02:c4:7d:aa:26:36:6c:53:09:dc:c2:cb:a6:8f:
                    5a:f4:2c:08:26:29:8e:2d:33
                Exponent: 65537 (0x10001)
        X509v3 extensions:
            X509v3 Basic Constraints: 
                CA:FALSE
            Netscape Comment: 
                Easy-RSA Generated Certificate
            X509v3 Subject Key Identifier: 
                49:08:F4:8B:48:3C:EA:A4:49:96:DA:B6:B5:89:B5:96:2D:02:05:E7
            X509v3 Authority Key Identifier: 
                keyid:00:98:A5:D5:E7:C4:55:0E:84:A3:67:FE:66:4A:16:E0:04:15:DD:21
                DirName:/C=US/ST=NC/L=Raleigh/O=Fedora Project/OU=fedmsg/CN=fedmsg/name=fedmsg/emailAddress=admin@fedoraproject.org
                serial:8E:EB:28:D8:A9:13:9D:7C

            X509v3 Extended Key Usage: 
                TLS Web Client Authentication
            X509v3 Key Usage: 
                Digital Signature
    Signature Algorithm: sha1WithRSAEncryption
        dd:20:f0:cf:36:7a:67:4a:22:8b:76:02:e2:0e:aa:49:28:f2:
        6f:0f:2e:84:85:37:2c:a8:3d:73:5f:fc:60:22:ec:7d:73:1f:
        5c:c1:b7:95:66:2b:00:40:6d:3a:c7:f6:82:4f:7f:49:3b:cf:
        89:e7:91:80:46:76:b1:6c:92:8c:4f:22:36:fb:eb:29:30:5f:
        ce:99:fa:e8:29:dc:96:8d:97:b3:a7:d0:5e:24:25:0b:85:1a:
        35:62:ce:c9:ea:c6:f0:39:44:dd:8e:de:6f:94:c1:62:67:72:
        6e:6d:6e:f5:da:f6:b3:cb:2d:fe:3b:c4:7f:9e:57:8d:33:67:
        15:7e
-----BEGIN CERTIFICATE-----
MIIEUTCCA7qgAwIBAgIBITANBgkqhkiG9w0BAQUFADCBoDELMAkGA1UEBhMCVVMx
CzAJBgNVBAgTAk5DMRAwDgYDVQQHEwdSYWxlaWdoMRcwFQYDVQQKEw5GZWRvcmEg
UHJvamVjdDEPMA0GA1UECxMGZmVkbXNnMQ8wDQYDVQQDEwZmZWRtc2cxDzANBgNV
BCkTBmZlZG1zZzEmMCQGCSqGSIb3DQEJARYXYWRtaW5AZmVkb3JhcHJvamVjdC5v
cmcwHhcNMTIwNzE1MjExODU0WhcNMjIwNzEzMjExODU0WjCB4DELMAkGA1UEBhMC
VVMxCzAJBgNVBAgTAk5DMRAwDgYDVQQHEwdSYWxlaWdoMRcwFQYDVQQKEw5GZWRv
cmEgUHJvamVjdDEPMA0GA1UECxMGZmVkbXNnMS8wLQYDVQQDEyZtZWRpYXdpa2kt
YXBwMDUucGh4Mi5mZWRvcmFwcm9qZWN0Lm9yZzEvMC0GA1UEKRMmbWVkaWF3aWtp
LWFwcDA1LnBoeDIuZmVkb3JhcHJvamVjdC5vcmcxJjAkBgkqhkiG9w0BCQEWF2Fk
bWluQGZlZG9yYXByb2plY3Qub3JnMIGfMA0GCSqGSIb3DQEBAQUAA4GNADCBiQKB
gQD7PYp/XoPBq0d17VwACUeofKSYiEknJuHhGAEoeoXSWTzDBjbcRmD4e0m95Vmt
EIm3prXPp6TvRxadMspVDKZl4B+XiCMxYKyZrHfeGIms7gFMKUbjXbm5uLakF9RV
ONcjiVJamj4bcMoCxH2qJjZsUwncwsumj1r0LAgmKY4tMwIDAQABo4IBVzCCAVMw
CQYDVR0TBAIwADAtBglghkgBhvhCAQ0EIBYeRWFzeS1SU0EgR2VuZXJhdGVkIENl
cnRpZmljYXRlMB0GA1UdDgQWBBRJCPSLSDzqpEmW2ra1ibWWLQIF5zCB1QYDVR0j
BIHNMIHKgBQAmKXV58RVDoSjZ/5mShbgBBXdIaGBpqSBozCBoDELMAkGA1UEBhMC
VVMxCzAJBgNVBAgTAk5DMRAwDgYDVQQHEwdSYWxlaWdoMRcwFQYDVQQKEw5GZWRv
cmEgUHJvamVjdDEPMA0GA1UECxMGZmVkbXNnMQ8wDQYDVQQDEwZmZWRtc2cxDzAN
BgNVBCkTBmZlZG1zZzEmMCQGCSqGSIb3DQEJARYXYWRtaW5AZmVkb3JhcHJvamVj
dC5vcmeCCQCO6yjYqROdfDATBgNVHSUEDDAKBggrBgEFBQcDAjALBgNVHQ8EBAMC
B4AwDQYJKoZIhvcNAQEFBQADgYEA3SDwzzZ6Z0oii3YC4g6qSSjybw8uhIU3LKg9
c1/8YCLsfXMfXMG3lWYrAEBtOsf2gk9/STvPieeRgEZ2sWySjE8iNvvrKTBfzpn6
6Cnclo2Xs6fQXiQlC4UaNWLOyerG8DlE3Y7eb5TBYmdybm1u9dr2s8st/jvEf55X
jTNnFX4=
-----END CERTIFICATE-----
