Certificate:
    Data:
        Version: 3 (0x2)
        Serial Number: 33 (0x21)
        Signature Algorithm: sha256WithRSAEncryption
        Issuer: C=US, ST=NC, L=Raleigh, O=Fedora Project, OU=fedmsg, CN=fedmsg/name=fedmsg/emailAddress=admin@fedoraproject.org
        Validity
            Not Before: Feb 20 11:43:13 2023 GMT
            Not After : Feb 17 11:43:13 2033 GMT
        Subject: C=US, ST=NC, L=Raleigh, O=Fedora Project, OU=fedmsg, CN=mediawiki-app05.phx2.fedoraproject.org/name=mediawiki-app05.phx2.fedoraproject.org/emailAddress=admin@fedoraproject.org
        Subject Public Key Info:
            Public Key Algorithm: rsaEncryption
                Public-Key: (1024 bit)
                Modulus:
                    00:dd:1f:ab:44:20:1a:22:14:a0:ff:48:73:e1:08:
                    52:b3:32:3c:c1:7e:ad:19:ab:bb:b0:b4:35:2f:93:
                    a6:17:6d:5b:b5:1f:f4:ab:b7:a9:2e:e8:3f:45:6c:
                    50:5e:56:47:6f:78:93:e5:47:b2:2a:80:4f:b8:6c:
                    36:40:01:fc:57:6f:f8:a4:ba:f7:3c:b8:c8:e0:a3:
                    07:73:fb:8d:f6:ab:d4:c7:78:c4:8a:62:6a:89:2e:
                    f2:c5:5d:e2:fe:f5:d1:c5:34:a9:ec:4a:69:32:f0:
                    cf:94:0c:62:db:c7:c7:99:d4:14:8d:5e:fd:4c:15:
                    36:45:b7:08:e1:fc:ed:9f:9b
                Exponent: 65537 (0x10001)
        X509v3 extensions:
            X509v3 Basic Constraints: 
                CA:FALSE
            Netscape Comment: 
                Easy-RSA Generated Certificate
            X509v3 Subject Key Identifier: 
                57:99:3F:6E:FF:14:22:6E:8A:BA:F7:EC:E9:EB:43:AF:51:25:7D:A3
            X509v3 Authority Key Identifier: 
                keyid:85:3B:0B:B5:86:22:32:DD:BD:F8:E1:7C:89:C3:20:AD:CA:44:B5:38
                DirName:/C=US/ST=NC/L=Raleigh/O=Fedora Project/OU=fedmsg/CN=fedmsg/name=fedmsg/emailAddress=admin@fedoraproject.org
                serial:31:18:5F:9A:5C:BE:C6:64:1E:FD:20:B3:37:B2:B2:16:FB:E0:C0:F6
            X509v3 Extended Key Usage: 
                TLS Web Client Authentication
            X509v3 Key Usage: 
                Digital Signature
    Signature Algorithm: sha256WithRSAEncryption
    Signature Value:
        3a:64:17:84:c6:03:20:76:1c:82:78:00:f9:84:77:69:93:3c:
        57:a2:f2:9d:a9:fc:4b:f5:28:0e:3d:39:96:2e:69:ec:32:e6:
        a6:1d:6d:39:ad:9e:3e:d0:25:85:e3:81:90:2a:33:16:44:71:
        dc:dc:ff:90:8b:0d:63:75:56:58:28:a5:50:08:5b:39:f1:09:
        c2:a1:57:0c:cc:2b:64:9e:b6:2a:a9:d8:79:3c:37:89:e0:d5:
        3d:5b:09:a7:b1:ba:9e:3a:da:9e:fa:46:76:7d:a1:e7:ff:32:
        b9:cc:4c:0c:f3:63:88:db:9c:98:64:b5:83:e8:3c:f0:80:05:
        88:14
-----BEGIN CERTIFICATE-----
MIIEXDCCA8WgAwIBAgIBITANBgkqhkiG9w0BAQsFADCBoDELMAkGA1UEBhMCVVMx
CzAJBgNVBAgTAk5DMRAwDgYDVQQHEwdSYWxlaWdoMRcwFQYDVQQKEw5GZWRvcmEg
UHJvamVjdDEPMA0GA1UECxMGZmVkbXNnMQ8wDQYDVQQDEwZmZWRtc2cxDzANBgNV
BCkTBmZlZG1zZzEmMCQGCSqGSIb3DQEJARYXYWRtaW5AZmVkb3JhcHJvamVjdC5v
cmcwHhcNMjMwMjIwMTE0MzEzWhcNMzMwMjE3MTE0MzEzWjCB4DELMAkGA1UEBhMC
VVMxCzAJBgNVBAgTAk5DMRAwDgYDVQQHEwdSYWxlaWdoMRcwFQYDVQQKEw5GZWRv
cmEgUHJvamVjdDEPMA0GA1UECxMGZmVkbXNnMS8wLQYDVQQDEyZtZWRpYXdpa2kt
YXBwMDUucGh4Mi5mZWRvcmFwcm9qZWN0Lm9yZzEvMC0GA1UEKRMmbWVkaWF3aWtp
LWFwcDA1LnBoeDIuZmVkb3JhcHJvamVjdC5vcmcxJjAkBgkqhkiG9w0BCQEWF2Fk
bWluQGZlZG9yYXByb2plY3Qub3JnMIGfMA0GCSqGSIb3DQEBAQUAA4GNADCBiQKB
gQDdH6tEIBoiFKD/SHPhCFKzMjzBfq0Zq7uwtDUvk6YXbVu1H/Srt6ku6D9FbFBe
VkdveJPlR7IqgE+4bDZAAfxXb/ikuvc8uMjgowdz+432q9THeMSKYmqJLvLFXeL+
9dHFNKnsSmky8M+UDGLbx8eZ1BSNXv1MFTZFtwjh/O2fmwIDAQABo4IBYjCCAV4w
CQYDVR0TBAIwADAtBglghkgBhvhCAQ0EIBYeRWFzeS1SU0EgR2VuZXJhdGVkIENl
cnRpZmljYXRlMB0GA1UdDgQWBBRXmT9u/xQiboq69+zp60OvUSV9ozCB4AYDVR0j
BIHYMIHVgBSFOwu1hiIy3b344XyJwyCtykS1OKGBpqSBozCBoDELMAkGA1UEBhMC
VVMxCzAJBgNVBAgTAk5DMRAwDgYDVQQHEwdSYWxlaWdoMRcwFQYDVQQKEw5GZWRv
cmEgUHJvamVjdDEPMA0GA1UECxMGZmVkbXNnMQ8wDQYDVQQDEwZmZWRtc2cxDzAN
BgNVBCkTBmZlZG1zZzEmMCQGCSqGSIb3DQEJARYXYWRtaW5AZmVkb3JhcHJvamVj
dC5vcmeCFDEYX5pcvsZkHv0gszeyshb74MD2MBMGA1UdJQQMMAoGCCsGAQUFBwMC
MAsGA1UdDwQEAwIHgDANBgkqhkiG9w0BAQsFAAOBgQA6ZBeExgMgdhyCeAD5hHdp
kzxXovKdqfxL9SgOPTmWLmnsMuamHW05rZ4+0CWF44GQKjMWRHHc3P+Qiw1jdVZY
KKVQCFs58QnCoVcMzCtknrYqqdh5PDeJ4NU9WwmnsbqeOtqe+kZ2faHn/zK5zEwM
82OI25yYZLWD6DzwgAWIFA==
-----END CERTIFICATE-----
