Certificate:
    Data:
        Version: 3 (0x2)
        Serial Number: 34 (0x22)
        Signature Algorithm: sha256WithRSAEncryption
        Issuer: C=US, ST=NC, L=Raleigh, O=Fedora Project, OU=fedmsg, CN=fedmsg/name=fedmsg/emailAddress=admin@fedoraproject.org
        Validity
            Not Before: Feb 20 11:43:13 2023 GMT
            Not After : Feb 17 11:43:13 2033 GMT
        Subject: C=US, ST=NC, L=Raleigh, O=Fedora Project, OU=fedmsg, CN=mediawiki-app06.phx2.fedoraproject.org/name=mediawiki-app06.phx2.fedoraproject.org/emailAddress=admin@fedoraproject.org
        Subject Public Key Info:
            Public Key Algorithm: rsaEncryption
                Public-Key: (1024 bit)
                Modulus:
                    00:a5:ba:fd:f5:4d:30:ca:29:d7:84:15:fc:bc:98:
                    9d:a9:b2:16:d1:25:35:ae:f0:99:6a:6c:df:01:a2:
                    5d:75:4a:9d:bd:56:c1:e7:4c:be:66:bf:63:fc:2a:
                    8a:50:a4:13:44:a5:02:39:a1:2c:27:b0:9c:9c:36:
                    46:87:3a:5a:89:a4:92:c2:91:45:53:b6:47:83:f0:
                    08:4c:89:10:93:3f:f7:a9:d1:3a:6a:4c:f4:42:8e:
                    d3:4a:12:0e:f2:57:16:71:91:31:9c:11:4e:7e:a4:
                    cd:9f:59:47:45:79:48:08:c5:1c:4e:ce:60:a6:07:
                    d5:99:4b:a4:8e:d3:e3:b8:71
                Exponent: 65537 (0x10001)
        X509v3 extensions:
            X509v3 Basic Constraints: 
                CA:FALSE
            Netscape Comment: 
                Easy-RSA Generated Certificate
            X509v3 Subject Key Identifier: 
                33:EF:3F:82:06:09:11:3F:CE:05:B3:57:12:57:8A:D3:D2:FC:9E:01
            X509v3 Authority Key Identifier: 
                keyid:85:3B:0B:B5:86:22:32:DD:BD:F8:E1:7C:89:C3:20:AD:CA:44:B5:38
                DirName:/C=US/ST=NC/L=Raleigh/O=Fedora Project/OU=fedmsg/CN=fedmsg/name=fedmsg/emailAddress=admin@fedoraproject.org
                serial:31:18:5F:9A:5C:BE:C6:64:1E:FD:20:B3:37:B2:B2:16:FB:E0:C0:F6
            X509v3 Extended Key Usage: 
                TLS Web Client Authentication
            X509v3 Key Usage: 
                Digital Signature
    Signature Algorithm: sha256WithRSAEncryption
    Signature Value:
        7d:22:70:f0:0d:64:0f:46:1f:db:00:15:5c:c8:f5:a3:ac:8b:
        e5:c7:68:c8:28:a0:09:e5:0b:dc:57:ba:4c:8e:61:32:aa:b6:
        12:6a:21:ac:d6:c4:fc:1a:8b:c4:e7:1a:a6:43:1b:87:49:1e:
        ab:1e:34:f5:4d:da:62:6a:4e:06:1c:62:1c:98:d2:92:e8:79:
        be:3c:e9:ed:6a:02:c7:45:15:2a:4c:bb:e6:28:ab:d0:6d:01:
        b8:68:2a:72:75:84:cd:8c:a1:eb:82:03:ff:3a:48:5c:5f:74:
        c1:e8:7d:ed:e4:97:e5:6c:73:2b:bb:14:aa:4a:6a:f5:2e:14:
        f2:2f
-----BEGIN CERTIFICATE-----
MIIEXDCCA8WgAwIBAgIBIjANBgkqhkiG9w0BAQsFADCBoDELMAkGA1UEBhMCVVMx
CzAJBgNVBAgTAk5DMRAwDgYDVQQHEwdSYWxlaWdoMRcwFQYDVQQKEw5GZWRvcmEg
UHJvamVjdDEPMA0GA1UECxMGZmVkbXNnMQ8wDQYDVQQDEwZmZWRtc2cxDzANBgNV
BCkTBmZlZG1zZzEmMCQGCSqGSIb3DQEJARYXYWRtaW5AZmVkb3JhcHJvamVjdC5v
cmcwHhcNMjMwMjIwMTE0MzEzWhcNMzMwMjE3MTE0MzEzWjCB4DELMAkGA1UEBhMC
VVMxCzAJBgNVBAgTAk5DMRAwDgYDVQQHEwdSYWxlaWdoMRcwFQYDVQQKEw5GZWRv
cmEgUHJvamVjdDEPMA0GA1UECxMGZmVkbXNnMS8wLQYDVQQDEyZtZWRpYXdpa2kt
YXBwMDYucGh4Mi5mZWRvcmFwcm9qZWN0Lm9yZzEvMC0GA1UEKRMmbWVkaWF3aWtp
LWFwcDA2LnBoeDIuZmVkb3JhcHJvamVjdC5vcmcxJjAkBgkqhkiG9w0BCQEWF2Fk
bWluQGZlZG9yYXByb2plY3Qub3JnMIGfMA0GCSqGSIb3DQEBAQUAA4GNADCBiQKB
gQCluv31TTDKKdeEFfy8mJ2pshbRJTWu8JlqbN8Bol11Sp29VsHnTL5mv2P8KopQ
pBNEpQI5oSwnsJycNkaHOlqJpJLCkUVTtkeD8AhMiRCTP/ep0TpqTPRCjtNKEg7y
VxZxkTGcEU5+pM2fWUdFeUgIxRxOzmCmB9WZS6SO0+O4cQIDAQABo4IBYjCCAV4w
CQYDVR0TBAIwADAtBglghkgBhvhCAQ0EIBYeRWFzeS1SU0EgR2VuZXJhdGVkIENl
cnRpZmljYXRlMB0GA1UdDgQWBBQz7z+CBgkRP84Fs1cSV4rT0vyeATCB4AYDVR0j
BIHYMIHVgBSFOwu1hiIy3b344XyJwyCtykS1OKGBpqSBozCBoDELMAkGA1UEBhMC
VVMxCzAJBgNVBAgTAk5DMRAwDgYDVQQHEwdSYWxlaWdoMRcwFQYDVQQKEw5GZWRv
cmEgUHJvamVjdDEPMA0GA1UECxMGZmVkbXNnMQ8wDQYDVQQDEwZmZWRtc2cxDzAN
BgNVBCkTBmZlZG1zZzEmMCQGCSqGSIb3DQEJARYXYWRtaW5AZmVkb3JhcHJvamVj
dC5vcmeCFDEYX5pcvsZkHv0gszeyshb74MD2MBMGA1UdJQQMMAoGCCsGAQUFBwMC
MAsGA1UdDwQEAwIHgDANBgkqhkiG9w0BAQsFAAOBgQB9InDwDWQPRh/bABVcyPWj
rIvlx2jIKKAJ5QvcV7pMjmEyqrYSaiGs1sT8GovE5xqmQxuHSR6rHjT1Tdpiak4G
HGIcmNKS6Hm+POntagLHRRUqTLvmKKvQbQG4aCpydYTNjKHrggP/OkhcX3TB6H3t
5JflbHMruxSqSmr1LhTyLw==
-----END CERTIFICATE-----
