Certificate:
    Data:
        Version: 3 (0x2)
        Serial Number: 35 (0x23)
        Signature Algorithm: sha1WithRSAEncryption
        Issuer: C=US, ST=NC, L=Raleigh, O=Fedora Project, OU=fedmsg, CN=fedmsg/name=fedmsg/emailAddress=admin@fedoraproject.org
        Validity
            Not Before: Jul 15 21:18:54 2012 GMT
            Not After : Jul 13 21:18:54 2022 GMT
        Subject: C=US, ST=NC, L=Raleigh, O=Fedora Project, OU=fedmsg, CN=mediawiki-app07.phx2.fedoraproject.org/name=mediawiki-app07.phx2.fedoraproject.org/emailAddress=admin@fedoraproject.org
        Subject Public Key Info:
            Public Key Algorithm: rsaEncryption
                Public-Key: (1024 bit)
                Modulus:
                    00:a2:4b:a4:9b:ca:bc:d0:3a:bc:30:c7:87:79:2d:
                    df:5b:1b:08:5e:8f:b5:1f:13:a1:2d:65:7e:27:a7:
                    c9:3f:65:d7:a6:a1:43:db:c4:9c:6a:71:4d:65:88:
                    85:14:65:c0:f0:fb:a5:d0:4a:26:99:9f:82:f5:f5:
                    06:68:56:86:e7:67:52:90:40:d9:5c:11:f7:40:c3:
                    17:a7:a3:7d:45:a4:09:29:ab:99:9d:f0:39:f7:a2:
                    05:2d:08:34:c6:22:00:b0:e6:10:ca:f9:91:e4:a7:
                    15:18:46:17:c2:1c:2b:be:6c:b6:a0:f7:8c:4a:19:
                    29:23:d5:4e:8a:84:61:56:59
                Exponent: 65537 (0x10001)
        X509v3 extensions:
            X509v3 Basic Constraints: 
                CA:FALSE
            Netscape Comment: 
                Easy-RSA Generated Certificate
            X509v3 Subject Key Identifier: 
                AB:00:98:5E:BF:83:5B:8F:25:15:E0:31:54:1D:FC:91:FD:EF:87:73
            X509v3 Authority Key Identifier: 
                keyid:00:98:A5:D5:E7:C4:55:0E:84:A3:67:FE:66:4A:16:E0:04:15:DD:21
                DirName:/C=US/ST=NC/L=Raleigh/O=Fedora Project/OU=fedmsg/CN=fedmsg/name=fedmsg/emailAddress=admin@fedoraproject.org
                serial:8E:EB:28:D8:A9:13:9D:7C

            X509v3 Extended Key Usage: 
                TLS Web Client Authentication
            X509v3 Key Usage: 
                Digital Signature
    Signature Algorithm: sha1WithRSAEncryption
        b9:3a:ec:d0:04:16:90:a0:85:a8:40:0d:b5:79:6b:0e:7d:9a:
        b1:bf:46:91:41:7c:41:4f:72:58:92:41:a1:4f:77:1b:cd:01:
        42:65:25:7b:1a:3f:36:ad:96:24:e4:6b:c0:07:c1:13:6f:88:
        69:6a:39:87:1e:01:80:94:4c:2e:c7:ef:a8:47:75:8f:67:4d:
        77:3c:94:b9:88:d9:dc:f2:96:cf:43:6b:7b:79:bb:f8:d6:01:
        6f:d5:a1:6c:d9:3d:0d:bf:29:2c:8b:32:cc:c6:fc:23:83:31:
        c9:7d:75:42:7e:6e:27:b1:d3:9c:fd:1c:fd:11:96:a7:a5:07:
        45:b1
-----BEGIN CERTIFICATE-----
MIIEUTCCA7qgAwIBAgIBIzANBgkqhkiG9w0BAQUFADCBoDELMAkGA1UEBhMCVVMx
CzAJBgNVBAgTAk5DMRAwDgYDVQQHEwdSYWxlaWdoMRcwFQYDVQQKEw5GZWRvcmEg
UHJvamVjdDEPMA0GA1UECxMGZmVkbXNnMQ8wDQYDVQQDEwZmZWRtc2cxDzANBgNV
BCkTBmZlZG1zZzEmMCQGCSqGSIb3DQEJARYXYWRtaW5AZmVkb3JhcHJvamVjdC5v
cmcwHhcNMTIwNzE1MjExODU0WhcNMjIwNzEzMjExODU0WjCB4DELMAkGA1UEBhMC
VVMxCzAJBgNVBAgTAk5DMRAwDgYDVQQHEwdSYWxlaWdoMRcwFQYDVQQKEw5GZWRv
cmEgUHJvamVjdDEPMA0GA1UECxMGZmVkbXNnMS8wLQYDVQQDEyZtZWRpYXdpa2kt
YXBwMDcucGh4Mi5mZWRvcmFwcm9qZWN0Lm9yZzEvMC0GA1UEKRMmbWVkaWF3aWtp
LWFwcDA3LnBoeDIuZmVkb3JhcHJvamVjdC5vcmcxJjAkBgkqhkiG9w0BCQEWF2Fk
bWluQGZlZG9yYXByb2plY3Qub3JnMIGfMA0GCSqGSIb3DQEBAQUAA4GNADCBiQKB
gQCiS6SbyrzQOrwwx4d5Ld9bGwhej7UfE6EtZX4np8k/ZdemoUPbxJxqcU1liIUU
ZcDw+6XQSiaZn4L19QZoVobnZ1KQQNlcEfdAwxeno31FpAkpq5md8Dn3ogUtCDTG
IgCw5hDK+ZHkpxUYRhfCHCu+bLag94xKGSkj1U6KhGFWWQIDAQABo4IBVzCCAVMw
CQYDVR0TBAIwADAtBglghkgBhvhCAQ0EIBYeRWFzeS1SU0EgR2VuZXJhdGVkIENl
cnRpZmljYXRlMB0GA1UdDgQWBBSrAJhev4NbjyUV4DFUHfyR/e+HczCB1QYDVR0j
BIHNMIHKgBQAmKXV58RVDoSjZ/5mShbgBBXdIaGBpqSBozCBoDELMAkGA1UEBhMC
VVMxCzAJBgNVBAgTAk5DMRAwDgYDVQQHEwdSYWxlaWdoMRcwFQYDVQQKEw5GZWRv
cmEgUHJvamVjdDEPMA0GA1UECxMGZmVkbXNnMQ8wDQYDVQQDEwZmZWRtc2cxDzAN
BgNVBCkTBmZlZG1zZzEmMCQGCSqGSIb3DQEJARYXYWRtaW5AZmVkb3JhcHJvamVj
dC5vcmeCCQCO6yjYqROdfDATBgNVHSUEDDAKBggrBgEFBQcDAjALBgNVHQ8EBAMC
B4AwDQYJKoZIhvcNAQEFBQADgYEAuTrs0AQWkKCFqEANtXlrDn2asb9GkUF8QU9y
WJJBoU93G80BQmUlexo/Nq2WJORrwAfBE2+IaWo5hx4BgJRMLsfvqEd1j2dNdzyU
uYjZ3PKWz0Nre3m7+NYBb9WhbNk9Db8pLIsyzMb8I4MxyX11Qn5uJ7HTnP0c/RGW
p6UHRbE=
-----END CERTIFICATE-----
