Certificate:
    Data:
        Version: 3 (0x2)
        Serial Number: 36 (0x24)
        Signature Algorithm: sha1WithRSAEncryption
        Issuer: C=US, ST=NC, L=Raleigh, O=Fedora Project, OU=fedmsg, CN=fedmsg/name=fedmsg/emailAddress=admin@fedoraproject.org
        Validity
            Not Before: Jul 15 21:18:54 2012 GMT
            Not After : Jul 13 21:18:54 2022 GMT
        Subject: C=US, ST=NC, L=Raleigh, O=Fedora Project, OU=fedmsg, CN=mediawiki-app01.stg.phx2.fedoraproject.org/name=mediawiki-app01.stg.phx2.fedoraproject.org/emailAddress=admin@fedoraproject.org
        Subject Public Key Info:
            Public Key Algorithm: rsaEncryption
                Public-Key: (1024 bit)
                Modulus:
                    00:af:f8:46:1b:09:86:56:1f:02:e4:e6:8f:0a:01:
                    0e:af:5c:d5:e2:9f:2b:96:b4:32:73:da:d5:3f:c8:
                    07:24:7b:5e:cc:b2:a6:43:24:eb:c8:b8:42:38:2c:
                    a6:0b:32:c0:bc:ac:3d:f7:3a:e3:7c:56:52:c6:c6:
                    a1:2d:b7:53:9e:d4:75:c7:63:21:56:20:fa:c6:46:
                    77:c7:e8:96:4a:d1:49:b6:89:14:d1:18:0e:af:19:
                    4c:5b:da:bd:f8:3b:80:be:e0:5b:81:14:da:cc:e6:
                    c5:99:1d:42:a6:3b:0b:93:30:14:d2:6f:83:d8:99:
                    a1:49:1e:7b:e6:ea:60:c8:29
                Exponent: 65537 (0x10001)
        X509v3 extensions:
            X509v3 Basic Constraints: 
                CA:FALSE
            Netscape Comment: 
                Easy-RSA Generated Certificate
            X509v3 Subject Key Identifier: 
                E1:66:08:F7:79:4A:8D:3A:85:0E:FD:04:C6:12:3C:44:91:D4:ED:91
            X509v3 Authority Key Identifier: 
                keyid:00:98:A5:D5:E7:C4:55:0E:84:A3:67:FE:66:4A:16:E0:04:15:DD:21
                DirName:/C=US/ST=NC/L=Raleigh/O=Fedora Project/OU=fedmsg/CN=fedmsg/name=fedmsg/emailAddress=admin@fedoraproject.org
                serial:8E:EB:28:D8:A9:13:9D:7C

            X509v3 Extended Key Usage: 
                TLS Web Client Authentication
            X509v3 Key Usage: 
                Digital Signature
    Signature Algorithm: sha1WithRSAEncryption
        5e:95:9d:35:70:32:7b:25:01:3a:2d:36:3c:a4:86:5b:00:a5:
        c9:4a:ec:fb:9d:50:1d:22:02:1f:46:95:da:3f:97:3c:01:83:
        41:b8:a0:2e:26:ee:7e:75:c9:39:9c:23:bf:ab:4e:a8:c9:5d:
        40:be:e5:34:73:3c:e8:62:3c:bf:ea:a9:01:94:60:41:cc:45:
        e6:fa:eb:54:ca:f4:d0:0f:7c:02:a6:06:7d:16:77:8e:0e:7e:
        af:70:a1:2c:a4:32:9b:ab:b1:3c:2d:86:16:2b:bb:64:b9:2e:
        db:fe:32:24:75:2a:74:15:33:5d:0b:07:e3:0f:97:5d:a0:03:
        58:4a
-----BEGIN CERTIFICATE-----
MIIEWTCCA8KgAwIBAgIBJDANBgkqhkiG9w0BAQUFADCBoDELMAkGA1UEBhMCVVMx
CzAJBgNVBAgTAk5DMRAwDgYDVQQHEwdSYWxlaWdoMRcwFQYDVQQKEw5GZWRvcmEg
UHJvamVjdDEPMA0GA1UECxMGZmVkbXNnMQ8wDQYDVQQDEwZmZWRtc2cxDzANBgNV
BCkTBmZlZG1zZzEmMCQGCSqGSIb3DQEJARYXYWRtaW5AZmVkb3JhcHJvamVjdC5v
cmcwHhcNMTIwNzE1MjExODU0WhcNMjIwNzEzMjExODU0WjCB6DELMAkGA1UEBhMC
VVMxCzAJBgNVBAgTAk5DMRAwDgYDVQQHEwdSYWxlaWdoMRcwFQYDVQQKEw5GZWRv
cmEgUHJvamVjdDEPMA0GA1UECxMGZmVkbXNnMTMwMQYDVQQDEyptZWRpYXdpa2kt
YXBwMDEuc3RnLnBoeDIuZmVkb3JhcHJvamVjdC5vcmcxMzAxBgNVBCkTKm1lZGlh
d2lraS1hcHAwMS5zdGcucGh4Mi5mZWRvcmFwcm9qZWN0Lm9yZzEmMCQGCSqGSIb3
DQEJARYXYWRtaW5AZmVkb3JhcHJvamVjdC5vcmcwgZ8wDQYJKoZIhvcNAQEBBQAD
gY0AMIGJAoGBAK/4RhsJhlYfAuTmjwoBDq9c1eKfK5a0MnPa1T/IByR7XsyypkMk
68i4QjgspgsywLysPfc643xWUsbGoS23U57UdcdjIVYg+sZGd8folkrRSbaJFNEY
Dq8ZTFvavfg7gL7gW4EU2szmxZkdQqY7C5MwFNJvg9iZoUkee+bqYMgpAgMBAAGj
ggFXMIIBUzAJBgNVHRMEAjAAMC0GCWCGSAGG+EIBDQQgFh5FYXN5LVJTQSBHZW5l
cmF0ZWQgQ2VydGlmaWNhdGUwHQYDVR0OBBYEFOFmCPd5So06hQ79BMYSPESR1O2R
MIHVBgNVHSMEgc0wgcqAFACYpdXnxFUOhKNn/mZKFuAEFd0hoYGmpIGjMIGgMQsw
CQYDVQQGEwJVUzELMAkGA1UECBMCTkMxEDAOBgNVBAcTB1JhbGVpZ2gxFzAVBgNV
BAoTDkZlZG9yYSBQcm9qZWN0MQ8wDQYDVQQLEwZmZWRtc2cxDzANBgNVBAMTBmZl
ZG1zZzEPMA0GA1UEKRMGZmVkbXNnMSYwJAYJKoZIhvcNAQkBFhdhZG1pbkBmZWRv
cmFwcm9qZWN0Lm9yZ4IJAI7rKNipE518MBMGA1UdJQQMMAoGCCsGAQUFBwMCMAsG
A1UdDwQEAwIHgDANBgkqhkiG9w0BAQUFAAOBgQBelZ01cDJ7JQE6LTY8pIZbAKXJ
Suz7nVAdIgIfRpXaP5c8AYNBuKAuJu5+dck5nCO/q06oyV1AvuU0czzoYjy/6qkB
lGBBzEXm+utUyvTQD3wCpgZ9FneODn6vcKEspDKbq7E8LYYWK7tkuS7b/jIkdSp0
FTNdCwfjD5ddoANYSg==
-----END CERTIFICATE-----
