Certificate:
    Data:
        Version: 3 (0x2)
        Serial Number: 36 (0x24)
        Signature Algorithm: sha256WithRSAEncryption
        Issuer: C=US, ST=NC, L=Raleigh, O=Fedora Project, OU=fedmsg, CN=fedmsg/name=fedmsg/emailAddress=admin@fedoraproject.org
        Validity
            Not Before: Feb 20 11:43:13 2023 GMT
            Not After : Feb 17 11:43:13 2033 GMT
        Subject: C=US, ST=NC, L=Raleigh, O=Fedora Project, OU=fedmsg, CN=mediawiki-app01.stg.phx2.fedoraproject.org/name=mediawiki-app01.stg.phx2.fedoraproject.org/emailAddress=admin@fedoraproject.org
        Subject Public Key Info:
            Public Key Algorithm: rsaEncryption
                Public-Key: (1024 bit)
                Modulus:
                    00:b2:20:43:d2:f5:82:c6:df:71:62:82:86:d2:26:
                    a7:ed:fc:08:ac:49:9c:c7:61:f3:cf:f9:83:fa:f8:
                    da:24:25:9f:f1:8e:9b:51:f0:42:47:80:7b:99:e4:
                    c7:0c:6c:5e:af:42:08:08:72:a9:83:fc:84:78:2e:
                    9a:51:d6:ae:62:82:ef:59:d2:ac:59:5b:cc:fa:cf:
                    63:69:56:0a:89:3a:66:c5:0c:54:39:4a:3e:0a:e7:
                    8b:21:3e:cd:32:2f:42:98:3c:9e:79:8a:7b:9b:89:
                    c1:ad:3c:2a:7c:25:f2:57:23:02:7b:71:d6:49:cc:
                    78:10:42:20:0b:47:6e:c0:8b
                Exponent: 65537 (0x10001)
        X509v3 extensions:
            X509v3 Basic Constraints: 
                CA:FALSE
            Netscape Comment: 
                Easy-RSA Generated Certificate
            X509v3 Subject Key Identifier: 
                6A:DF:B8:C9:AB:A6:21:C6:99:E4:A5:02:5B:42:3F:96:DC:D5:18:07
            X509v3 Authority Key Identifier: 
                keyid:85:3B:0B:B5:86:22:32:DD:BD:F8:E1:7C:89:C3:20:AD:CA:44:B5:38
                DirName:/C=US/ST=NC/L=Raleigh/O=Fedora Project/OU=fedmsg/CN=fedmsg/name=fedmsg/emailAddress=admin@fedoraproject.org
                serial:31:18:5F:9A:5C:BE:C6:64:1E:FD:20:B3:37:B2:B2:16:FB:E0:C0:F6
            X509v3 Extended Key Usage: 
                TLS Web Client Authentication
            X509v3 Key Usage: 
                Digital Signature
    Signature Algorithm: sha256WithRSAEncryption
    Signature Value:
        47:c9:ec:4d:a4:56:83:5d:9b:a9:de:5a:aa:a7:7a:15:c8:48:
        ab:95:a3:b3:2f:18:56:e9:f6:b5:95:d4:ea:ec:f7:dc:fc:5a:
        17:8d:41:fc:d6:b8:a7:c8:53:a4:ca:a9:a0:f6:b4:d9:cc:bf:
        82:56:ba:32:f3:27:c8:ad:1b:d5:01:75:0a:94:cc:8f:65:b5:
        f5:14:05:81:46:e8:64:94:ca:d1:83:94:e2:03:20:ca:0b:2a:
        73:13:1c:ef:d1:0a:0a:31:36:2a:31:4c:d2:7c:4a:1c:01:65:
        f0:e1:e4:2c:24:36:83:b8:2a:72:fd:2c:16:82:cf:d2:8b:52:
        6b:5a
-----BEGIN CERTIFICATE-----
MIIEZDCCA82gAwIBAgIBJDANBgkqhkiG9w0BAQsFADCBoDELMAkGA1UEBhMCVVMx
CzAJBgNVBAgTAk5DMRAwDgYDVQQHEwdSYWxlaWdoMRcwFQYDVQQKEw5GZWRvcmEg
UHJvamVjdDEPMA0GA1UECxMGZmVkbXNnMQ8wDQYDVQQDEwZmZWRtc2cxDzANBgNV
BCkTBmZlZG1zZzEmMCQGCSqGSIb3DQEJARYXYWRtaW5AZmVkb3JhcHJvamVjdC5v
cmcwHhcNMjMwMjIwMTE0MzEzWhcNMzMwMjE3MTE0MzEzWjCB6DELMAkGA1UEBhMC
VVMxCzAJBgNVBAgTAk5DMRAwDgYDVQQHEwdSYWxlaWdoMRcwFQYDVQQKEw5GZWRv
cmEgUHJvamVjdDEPMA0GA1UECxMGZmVkbXNnMTMwMQYDVQQDEyptZWRpYXdpa2kt
YXBwMDEuc3RnLnBoeDIuZmVkb3JhcHJvamVjdC5vcmcxMzAxBgNVBCkTKm1lZGlh
d2lraS1hcHAwMS5zdGcucGh4Mi5mZWRvcmFwcm9qZWN0Lm9yZzEmMCQGCSqGSIb3
DQEJARYXYWRtaW5AZmVkb3JhcHJvamVjdC5vcmcwgZ8wDQYJKoZIhvcNAQEBBQAD
gY0AMIGJAoGBALIgQ9L1gsbfcWKChtImp+38CKxJnMdh88/5g/r42iQln/GOm1Hw
QkeAe5nkxwxsXq9CCAhyqYP8hHgumlHWrmKC71nSrFlbzPrPY2lWCok6ZsUMVDlK
PgrniyE+zTIvQpg8nnmKe5uJwa08Knwl8lcjAntx1knMeBBCIAtHbsCLAgMBAAGj
ggFiMIIBXjAJBgNVHRMEAjAAMC0GCWCGSAGG+EIBDQQgFh5FYXN5LVJTQSBHZW5l
cmF0ZWQgQ2VydGlmaWNhdGUwHQYDVR0OBBYEFGrfuMmrpiHGmeSlAltCP5bc1RgH
MIHgBgNVHSMEgdgwgdWAFIU7C7WGIjLdvfjhfInDIK3KRLU4oYGmpIGjMIGgMQsw
CQYDVQQGEwJVUzELMAkGA1UECBMCTkMxEDAOBgNVBAcTB1JhbGVpZ2gxFzAVBgNV
BAoTDkZlZG9yYSBQcm9qZWN0MQ8wDQYDVQQLEwZmZWRtc2cxDzANBgNVBAMTBmZl
ZG1zZzEPMA0GA1UEKRMGZmVkbXNnMSYwJAYJKoZIhvcNAQkBFhdhZG1pbkBmZWRv
cmFwcm9qZWN0Lm9yZ4IUMRhfmly+xmQe/SCzN7KyFvvgwPYwEwYDVR0lBAwwCgYI
KwYBBQUHAwIwCwYDVR0PBAQDAgeAMA0GCSqGSIb3DQEBCwUAA4GBAEfJ7E2kVoNd
m6neWqqnehXISKuVo7MvGFbp9rWV1Ors99z8WheNQfzWuKfIU6TKqaD2tNnMv4JW
ujLzJ8itG9UBdQqUzI9ltfUUBYFG6GSUytGDlOIDIMoLKnMTHO/RCgoxNioxTNJ8
ShwBZfDh5CwkNoO4KnL9LBaCz9KLUmta
-----END CERTIFICATE-----
