Certificate:
    Data:
        Version: 3 (0x2)
        Serial Number: 37 (0x25)
        Signature Algorithm: sha256WithRSAEncryption
        Issuer: C=US, ST=NC, L=Raleigh, O=Fedora Project, OU=fedmsg, CN=fedmsg/name=fedmsg/emailAddress=admin@fedoraproject.org
        Validity
            Not Before: Feb 20 11:43:13 2023 GMT
            Not After : Feb 17 11:43:13 2033 GMT
        Subject: C=US, ST=NC, L=Raleigh, O=Fedora Project, OU=fedmsg, CN=mediawiki-app02.stg.phx2.fedoraproject.org/name=mediawiki-app02.stg.phx2.fedoraproject.org/emailAddress=admin@fedoraproject.org
        Subject Public Key Info:
            Public Key Algorithm: rsaEncryption
                Public-Key: (1024 bit)
                Modulus:
                    00:ee:6b:41:c3:ba:76:d2:2c:47:a0:a1:a9:27:a1:
                    4b:3a:18:24:57:5d:b2:31:13:9d:30:46:d1:af:4c:
                    9f:a6:b7:4d:29:4e:14:b5:38:96:9f:28:76:33:b8:
                    48:b7:a9:89:4c:bb:65:85:f9:74:21:db:3a:40:e3:
                    f3:44:e7:e6:39:19:37:83:34:aa:b2:71:5d:a8:92:
                    24:0f:57:0e:a5:8d:fa:4b:48:5f:30:2e:4b:99:83:
                    01:07:68:23:f0:7b:e3:77:82:31:fb:8a:ed:eb:4f:
                    aa:f7:73:ab:83:eb:4c:f5:71:66:2f:89:ed:f8:c7:
                    2c:6f:04:e3:6a:91:c4:16:7b
                Exponent: 65537 (0x10001)
        X509v3 extensions:
            X509v3 Basic Constraints: 
                CA:FALSE
            Netscape Comment: 
                Easy-RSA Generated Certificate
            X509v3 Subject Key Identifier: 
                A3:2C:9B:8D:FB:A1:46:07:3C:2A:95:0A:03:D7:03:E5:18:B7:91:B1
            X509v3 Authority Key Identifier: 
                keyid:85:3B:0B:B5:86:22:32:DD:BD:F8:E1:7C:89:C3:20:AD:CA:44:B5:38
                DirName:/C=US/ST=NC/L=Raleigh/O=Fedora Project/OU=fedmsg/CN=fedmsg/name=fedmsg/emailAddress=admin@fedoraproject.org
                serial:31:18:5F:9A:5C:BE:C6:64:1E:FD:20:B3:37:B2:B2:16:FB:E0:C0:F6
            X509v3 Extended Key Usage: 
                TLS Web Client Authentication
            X509v3 Key Usage: 
                Digital Signature
    Signature Algorithm: sha256WithRSAEncryption
    Signature Value:
        91:39:ce:27:d0:19:5b:d8:21:11:01:de:b3:d2:36:9d:a0:26:
        23:6b:6e:8e:7b:e2:8d:82:10:61:cd:7f:cd:d1:fe:de:53:e7:
        39:41:32:54:9e:20:90:07:25:f4:91:bb:14:8c:1d:a3:1c:6f:
        c2:18:5e:f1:9d:e2:1d:f6:da:fd:cf:7f:4a:92:ee:97:53:72:
        5a:72:87:9c:a5:0e:39:d9:10:55:fa:d9:31:8f:fd:4a:3b:44:
        28:c9:ac:67:85:3c:cd:a1:2b:28:bb:a2:0b:35:59:c5:1f:c4:
        f6:81:64:ab:6d:39:d8:b6:c9:11:54:a3:6d:72:fa:99:09:c5:
        2e:81
-----BEGIN CERTIFICATE-----
MIIEZDCCA82gAwIBAgIBJTANBgkqhkiG9w0BAQsFADCBoDELMAkGA1UEBhMCVVMx
CzAJBgNVBAgTAk5DMRAwDgYDVQQHEwdSYWxlaWdoMRcwFQYDVQQKEw5GZWRvcmEg
UHJvamVjdDEPMA0GA1UECxMGZmVkbXNnMQ8wDQYDVQQDEwZmZWRtc2cxDzANBgNV
BCkTBmZlZG1zZzEmMCQGCSqGSIb3DQEJARYXYWRtaW5AZmVkb3JhcHJvamVjdC5v
cmcwHhcNMjMwMjIwMTE0MzEzWhcNMzMwMjE3MTE0MzEzWjCB6DELMAkGA1UEBhMC
VVMxCzAJBgNVBAgTAk5DMRAwDgYDVQQHEwdSYWxlaWdoMRcwFQYDVQQKEw5GZWRv
cmEgUHJvamVjdDEPMA0GA1UECxMGZmVkbXNnMTMwMQYDVQQDEyptZWRpYXdpa2kt
YXBwMDIuc3RnLnBoeDIuZmVkb3JhcHJvamVjdC5vcmcxMzAxBgNVBCkTKm1lZGlh
d2lraS1hcHAwMi5zdGcucGh4Mi5mZWRvcmFwcm9qZWN0Lm9yZzEmMCQGCSqGSIb3
DQEJARYXYWRtaW5AZmVkb3JhcHJvamVjdC5vcmcwgZ8wDQYJKoZIhvcNAQEBBQAD
gY0AMIGJAoGBAO5rQcO6dtIsR6ChqSehSzoYJFddsjETnTBG0a9Mn6a3TSlOFLU4
lp8odjO4SLepiUy7ZYX5dCHbOkDj80Tn5jkZN4M0qrJxXaiSJA9XDqWN+ktIXzAu
S5mDAQdoI/B743eCMfuK7etPqvdzq4PrTPVxZi+J7fjHLG8E42qRxBZ7AgMBAAGj
ggFiMIIBXjAJBgNVHRMEAjAAMC0GCWCGSAGG+EIBDQQgFh5FYXN5LVJTQSBHZW5l
cmF0ZWQgQ2VydGlmaWNhdGUwHQYDVR0OBBYEFKMsm437oUYHPCqVCgPXA+UYt5Gx
MIHgBgNVHSMEgdgwgdWAFIU7C7WGIjLdvfjhfInDIK3KRLU4oYGmpIGjMIGgMQsw
CQYDVQQGEwJVUzELMAkGA1UECBMCTkMxEDAOBgNVBAcTB1JhbGVpZ2gxFzAVBgNV
BAoTDkZlZG9yYSBQcm9qZWN0MQ8wDQYDVQQLEwZmZWRtc2cxDzANBgNVBAMTBmZl
ZG1zZzEPMA0GA1UEKRMGZmVkbXNnMSYwJAYJKoZIhvcNAQkBFhdhZG1pbkBmZWRv
cmFwcm9qZWN0Lm9yZ4IUMRhfmly+xmQe/SCzN7KyFvvgwPYwEwYDVR0lBAwwCgYI
KwYBBQUHAwIwCwYDVR0PBAQDAgeAMA0GCSqGSIb3DQEBCwUAA4GBAJE5zifQGVvY
IREB3rPSNp2gJiNrbo574o2CEGHNf83R/t5T5zlBMlSeIJAHJfSRuxSMHaMcb8IY
XvGd4h322v3Pf0qS7pdTclpyh5ylDjnZEFX62TGP/Uo7RCjJrGeFPM2hKyi7ogs1
WcUfxPaBZKttOdi2yRFUo21y+pkJxS6B
-----END CERTIFICATE-----
