Certificate:
    Data:
        Version: 3 (0x2)
        Serial Number: 39 (0x27)
        Signature Algorithm: sha1WithRSAEncryption
        Issuer: C=US, ST=NC, L=Raleigh, O=Fedora Project, OU=fedmsg, CN=fedmsg/name=fedmsg/emailAddress=admin@fedoraproject.org
        Validity
            Not Before: Jul 15 21:18:54 2012 GMT
            Not After : Jul 13 21:18:54 2022 GMT
        Subject: C=US, ST=NC, L=Raleigh, O=Fedora Project, OU=fedmsg, CN=fas-fas01.stg.phx2.fedoraproject.org/name=fas-fas01.stg.phx2.fedoraproject.org/emailAddress=admin@fedoraproject.org
        Subject Public Key Info:
            Public Key Algorithm: rsaEncryption
                Public-Key: (1024 bit)
                Modulus:
                    00:cf:e4:45:2a:19:69:c2:49:0d:e9:72:f1:e9:3c:
                    1c:a7:c5:34:e7:9a:d2:af:41:f4:dd:39:f6:8e:de:
                    63:60:e6:32:fe:33:bd:c0:c7:e3:ba:cb:6d:d5:b6:
                    ac:50:54:8d:fc:2c:16:87:68:c2:d1:c1:92:f1:b6:
                    55:07:77:9f:d2:32:86:cc:c5:d3:76:8e:c8:ba:e5:
                    67:69:f3:98:2a:3e:7e:52:39:0d:29:13:0e:85:53:
                    0f:33:1b:1f:33:7f:3f:ea:e6:ab:03:18:b8:fe:5e:
                    6f:c7:2d:ff:0c:dd:b0:54:bb:1c:aa:bb:b5:2f:7c:
                    1b:16:5e:bc:04:9e:fd:2b:03
                Exponent: 65537 (0x10001)
        X509v3 extensions:
            X509v3 Basic Constraints: 
                CA:FALSE
            Netscape Comment: 
                Easy-RSA Generated Certificate
            X509v3 Subject Key Identifier: 
                45:B5:AE:95:07:F6:A4:6F:E9:BF:47:48:95:BE:12:4B:9F:6F:24:67
            X509v3 Authority Key Identifier: 
                keyid:00:98:A5:D5:E7:C4:55:0E:84:A3:67:FE:66:4A:16:E0:04:15:DD:21
                DirName:/C=US/ST=NC/L=Raleigh/O=Fedora Project/OU=fedmsg/CN=fedmsg/name=fedmsg/emailAddress=admin@fedoraproject.org
                serial:8E:EB:28:D8:A9:13:9D:7C

            X509v3 Extended Key Usage: 
                TLS Web Client Authentication
            X509v3 Key Usage: 
                Digital Signature
    Signature Algorithm: sha1WithRSAEncryption
        4b:83:e1:91:44:dc:e0:74:c3:71:b5:85:33:e2:17:b6:b8:aa:
        a1:a7:e3:22:54:6d:76:f9:5c:f7:8a:4f:77:10:f6:51:90:e4:
        3f:e8:1d:b1:2f:63:79:5e:46:ea:af:ef:be:46:5b:af:3c:4e:
        a9:15:2f:ac:23:89:20:74:f2:1e:e4:02:cc:5a:a8:be:08:c2:
        c7:b9:f4:42:8b:c9:e4:a4:3e:13:c8:41:bc:b9:4e:37:22:e0:
        09:cb:c7:ab:56:26:c2:20:51:97:2b:06:ed:a3:e0:f8:b1:ea:
        17:c1:00:21:b0:18:15:64:cf:68:0c:a9:a0:bc:45:c1:2c:4c:
        c1:49
-----BEGIN CERTIFICATE-----
MIIETTCCA7agAwIBAgIBJzANBgkqhkiG9w0BAQUFADCBoDELMAkGA1UEBhMCVVMx
CzAJBgNVBAgTAk5DMRAwDgYDVQQHEwdSYWxlaWdoMRcwFQYDVQQKEw5GZWRvcmEg
UHJvamVjdDEPMA0GA1UECxMGZmVkbXNnMQ8wDQYDVQQDEwZmZWRtc2cxDzANBgNV
BCkTBmZlZG1zZzEmMCQGCSqGSIb3DQEJARYXYWRtaW5AZmVkb3JhcHJvamVjdC5v
cmcwHhcNMTIwNzE1MjExODU0WhcNMjIwNzEzMjExODU0WjCB3DELMAkGA1UEBhMC
VVMxCzAJBgNVBAgTAk5DMRAwDgYDVQQHEwdSYWxlaWdoMRcwFQYDVQQKEw5GZWRv
cmEgUHJvamVjdDEPMA0GA1UECxMGZmVkbXNnMS0wKwYDVQQDEyRmYXMtZmFzMDEu
c3RnLnBoeDIuZmVkb3JhcHJvamVjdC5vcmcxLTArBgNVBCkTJGZhcy1mYXMwMS5z
dGcucGh4Mi5mZWRvcmFwcm9qZWN0Lm9yZzEmMCQGCSqGSIb3DQEJARYXYWRtaW5A
ZmVkb3JhcHJvamVjdC5vcmcwgZ8wDQYJKoZIhvcNAQEBBQADgY0AMIGJAoGBAM/k
RSoZacJJDely8ek8HKfFNOea0q9B9N059o7eY2DmMv4zvcDH47rLbdW2rFBUjfws
FodowtHBkvG2VQd3n9IyhszF03aOyLrlZ2nzmCo+flI5DSkTDoVTDzMbHzN/P+rm
qwMYuP5eb8ct/wzdsFS7HKq7tS98GxZevASe/SsDAgMBAAGjggFXMIIBUzAJBgNV
HRMEAjAAMC0GCWCGSAGG+EIBDQQgFh5FYXN5LVJTQSBHZW5lcmF0ZWQgQ2VydGlm
aWNhdGUwHQYDVR0OBBYEFEW1rpUH9qRv6b9HSJW+EkufbyRnMIHVBgNVHSMEgc0w
gcqAFACYpdXnxFUOhKNn/mZKFuAEFd0hoYGmpIGjMIGgMQswCQYDVQQGEwJVUzEL
MAkGA1UECBMCTkMxEDAOBgNVBAcTB1JhbGVpZ2gxFzAVBgNVBAoTDkZlZG9yYSBQ
cm9qZWN0MQ8wDQYDVQQLEwZmZWRtc2cxDzANBgNVBAMTBmZlZG1zZzEPMA0GA1UE
KRMGZmVkbXNnMSYwJAYJKoZIhvcNAQkBFhdhZG1pbkBmZWRvcmFwcm9qZWN0Lm9y
Z4IJAI7rKNipE518MBMGA1UdJQQMMAoGCCsGAQUFBwMCMAsGA1UdDwQEAwIHgDAN
BgkqhkiG9w0BAQUFAAOBgQBLg+GRRNzgdMNxtYUz4he2uKqhp+MiVG12+Vz3ik93
EPZRkOQ/6B2xL2N5Xkbqr+++RluvPE6pFS+sI4kgdPIe5ALMWqi+CMLHufRCi8nk
pD4TyEG8uU43IuAJy8erVibCIFGXKwbto+D4seoXwQAhsBgVZM9oDKmgvEXBLEzB
SQ==
-----END CERTIFICATE-----
