Certificate:
    Data:
        Version: 3 (0x2)
        Serial Number: 40 (0x28)
        Signature Algorithm: sha256WithRSAEncryption
        Issuer: C=US, ST=NC, L=Raleigh, O=Fedora Project, OU=fedmsg, CN=fedmsg/name=fedmsg/emailAddress=admin@fedoraproject.org
        Validity
            Not Before: Feb 20 11:43:13 2023 GMT
            Not After : Feb 17 11:43:13 2033 GMT
        Subject: C=US, ST=NC, L=Raleigh, O=Fedora Project, OU=fedmsg, CN=fas-fas01.dev.phx2.fedoraproject.org/name=fas-fas01.dev.phx2.fedoraproject.org/emailAddress=admin@fedoraproject.org
        Subject Public Key Info:
            Public Key Algorithm: rsaEncryption
                Public-Key: (1024 bit)
                Modulus:
                    00:b8:63:4b:73:e1:c5:91:ee:23:14:3e:d8:45:c6:
                    21:60:f0:c5:7e:30:28:d7:5d:9d:81:4c:5f:0b:cf:
                    6a:27:0a:9a:74:37:ee:f8:3a:75:2c:d7:37:43:87:
                    81:48:41:85:1c:76:0a:b1:10:1a:9b:2d:89:ac:27:
                    94:91:42:69:ee:90:2a:3a:16:3c:56:76:2d:46:04:
                    81:d0:0d:dc:d8:60:2b:70:77:ea:5b:4f:5e:77:be:
                    38:78:e9:a4:37:83:f5:74:a8:1f:bf:5b:a2:7b:84:
                    c7:15:9a:83:1f:4a:dd:0e:6c:c7:db:bf:68:1b:7f:
                    45:49:44:83:86:15:13:b9:bf
                Exponent: 65537 (0x10001)
        X509v3 extensions:
            X509v3 Basic Constraints: 
                CA:FALSE
            Netscape Comment: 
                Easy-RSA Generated Certificate
            X509v3 Subject Key Identifier: 
                FE:DB:FE:1C:24:0C:32:FC:0D:92:E0:70:05:72:59:C1:26:88:F5:E5
            X509v3 Authority Key Identifier: 
                keyid:85:3B:0B:B5:86:22:32:DD:BD:F8:E1:7C:89:C3:20:AD:CA:44:B5:38
                DirName:/C=US/ST=NC/L=Raleigh/O=Fedora Project/OU=fedmsg/CN=fedmsg/name=fedmsg/emailAddress=admin@fedoraproject.org
                serial:31:18:5F:9A:5C:BE:C6:64:1E:FD:20:B3:37:B2:B2:16:FB:E0:C0:F6
            X509v3 Extended Key Usage: 
                TLS Web Client Authentication
            X509v3 Key Usage: 
                Digital Signature
    Signature Algorithm: sha256WithRSAEncryption
    Signature Value:
        5f:a4:42:cc:db:a4:1d:fc:93:32:a3:32:12:c7:33:3e:eb:88:
        62:40:64:82:db:ce:df:74:e8:bd:7a:9f:38:2b:b7:01:a5:55:
        1c:1a:c1:19:ca:3d:41:ad:22:92:e3:41:6c:cd:32:11:55:c0:
        c2:b7:c0:9e:01:01:83:b2:77:62:c9:eb:f3:ff:e7:59:8d:46:
        1c:36:69:b5:ea:17:b4:03:e6:11:96:1b:15:82:52:71:c6:68:
        c2:31:08:67:c6:ef:7c:6d:b5:1b:c2:bb:14:9e:19:58:6d:66:
        44:1d:8f:7c:20:b0:f6:5d:41:d8:6e:62:e7:06:dc:4d:e8:49:
        de:75
-----BEGIN CERTIFICATE-----
MIIEWDCCA8GgAwIBAgIBKDANBgkqhkiG9w0BAQsFADCBoDELMAkGA1UEBhMCVVMx
CzAJBgNVBAgTAk5DMRAwDgYDVQQHEwdSYWxlaWdoMRcwFQYDVQQKEw5GZWRvcmEg
UHJvamVjdDEPMA0GA1UECxMGZmVkbXNnMQ8wDQYDVQQDEwZmZWRtc2cxDzANBgNV
BCkTBmZlZG1zZzEmMCQGCSqGSIb3DQEJARYXYWRtaW5AZmVkb3JhcHJvamVjdC5v
cmcwHhcNMjMwMjIwMTE0MzEzWhcNMzMwMjE3MTE0MzEzWjCB3DELMAkGA1UEBhMC
VVMxCzAJBgNVBAgTAk5DMRAwDgYDVQQHEwdSYWxlaWdoMRcwFQYDVQQKEw5GZWRv
cmEgUHJvamVjdDEPMA0GA1UECxMGZmVkbXNnMS0wKwYDVQQDEyRmYXMtZmFzMDEu
ZGV2LnBoeDIuZmVkb3JhcHJvamVjdC5vcmcxLTArBgNVBCkTJGZhcy1mYXMwMS5k
ZXYucGh4Mi5mZWRvcmFwcm9qZWN0Lm9yZzEmMCQGCSqGSIb3DQEJARYXYWRtaW5A
ZmVkb3JhcHJvamVjdC5vcmcwgZ8wDQYJKoZIhvcNAQEBBQADgY0AMIGJAoGBALhj
S3PhxZHuIxQ+2EXGIWDwxX4wKNddnYFMXwvPaicKmnQ37vg6dSzXN0OHgUhBhRx2
CrEQGpstiawnlJFCae6QKjoWPFZ2LUYEgdAN3NhgK3B36ltPXne+OHjppDeD9XSo
H79bonuExxWagx9K3Q5sx9u/aBt/RUlEg4YVE7m/AgMBAAGjggFiMIIBXjAJBgNV
HRMEAjAAMC0GCWCGSAGG+EIBDQQgFh5FYXN5LVJTQSBHZW5lcmF0ZWQgQ2VydGlm
aWNhdGUwHQYDVR0OBBYEFP7b/hwkDDL8DZLgcAVyWcEmiPXlMIHgBgNVHSMEgdgw
gdWAFIU7C7WGIjLdvfjhfInDIK3KRLU4oYGmpIGjMIGgMQswCQYDVQQGEwJVUzEL
MAkGA1UECBMCTkMxEDAOBgNVBAcTB1JhbGVpZ2gxFzAVBgNVBAoTDkZlZG9yYSBQ
cm9qZWN0MQ8wDQYDVQQLEwZmZWRtc2cxDzANBgNVBAMTBmZlZG1zZzEPMA0GA1UE
KRMGZmVkbXNnMSYwJAYJKoZIhvcNAQkBFhdhZG1pbkBmZWRvcmFwcm9qZWN0Lm9y
Z4IUMRhfmly+xmQe/SCzN7KyFvvgwPYwEwYDVR0lBAwwCgYIKwYBBQUHAwIwCwYD
VR0PBAQDAgeAMA0GCSqGSIb3DQEBCwUAA4GBAF+kQszbpB38kzKjMhLHMz7riGJA
ZILbzt906L16nzgrtwGlVRwawRnKPUGtIpLjQWzNMhFVwMK3wJ4BAYOyd2LJ6/P/
51mNRhw2abXqF7QD5hGWGxWCUnHGaMIxCGfG73xttRvCuxSeGVhtZkQdj3wgsPZd
QdhuYucG3E3oSd51
-----END CERTIFICATE-----
