Certificate:
    Data:
        Version: 3 (0x2)
        Serial Number: 40 (0x28)
        Signature Algorithm: sha1WithRSAEncryption
        Issuer: C=US, ST=NC, L=Raleigh, O=Fedora Project, OU=fedmsg, CN=fedmsg/name=fedmsg/emailAddress=admin@fedoraproject.org
        Validity
            Not Before: Jul 15 21:18:54 2012 GMT
            Not After : Jul 13 21:18:54 2022 GMT
        Subject: C=US, ST=NC, L=Raleigh, O=Fedora Project, OU=fedmsg, CN=fas-fas01.dev.phx2.fedoraproject.org/name=fas-fas01.dev.phx2.fedoraproject.org/emailAddress=admin@fedoraproject.org
        Subject Public Key Info:
            Public Key Algorithm: rsaEncryption
                Public-Key: (1024 bit)
                Modulus:
                    00:9a:89:37:49:5c:35:fd:f1:bf:3f:30:9b:a0:d5:
                    0e:39:b6:1b:d7:19:39:79:11:b1:26:d3:4e:9b:e2:
                    ce:a4:10:c4:36:fd:13:d9:f5:e8:87:ac:c4:96:66:
                    cc:c0:2b:4e:94:c1:64:1d:41:64:eb:3e:48:47:d8:
                    20:32:f5:6b:f7:75:15:fb:9a:2b:19:20:79:ea:36:
                    cb:fe:04:ce:c3:dd:8f:bb:49:ae:04:81:f9:08:8a:
                    1a:a0:78:4e:bd:83:52:7d:44:28:72:3c:ba:a2:77:
                    28:be:f1:e6:87:33:fc:84:f1:f0:95:9f:02:6b:f1:
                    b1:30:c1:f7:8a:7b:18:ba:b7
                Exponent: 65537 (0x10001)
        X509v3 extensions:
            X509v3 Basic Constraints: 
                CA:FALSE
            Netscape Comment: 
                Easy-RSA Generated Certificate
            X509v3 Subject Key Identifier: 
                E1:72:E7:FD:75:0C:CE:D5:DF:B5:FF:AE:FF:52:B8:51:19:F4:7B:84
            X509v3 Authority Key Identifier: 
                keyid:00:98:A5:D5:E7:C4:55:0E:84:A3:67:FE:66:4A:16:E0:04:15:DD:21
                DirName:/C=US/ST=NC/L=Raleigh/O=Fedora Project/OU=fedmsg/CN=fedmsg/name=fedmsg/emailAddress=admin@fedoraproject.org
                serial:8E:EB:28:D8:A9:13:9D:7C

            X509v3 Extended Key Usage: 
                TLS Web Client Authentication
            X509v3 Key Usage: 
                Digital Signature
    Signature Algorithm: sha1WithRSAEncryption
        17:a3:c9:ac:f3:97:26:55:a5:9f:b6:1a:4f:e8:12:b8:a8:cc:
        b8:f3:3d:33:f7:ef:9b:ce:93:c3:fd:ff:b7:50:60:e6:24:03:
        38:45:c6:2b:cc:c8:ab:a2:c2:e1:0e:67:d7:2a:d8:26:d7:90:
        47:52:c0:cf:f7:a7:44:d4:ec:79:a3:cf:60:98:2e:07:34:1b:
        40:57:36:e5:71:b8:6e:fc:ff:16:da:3e:3b:bc:fe:8d:55:22:
        95:ff:b9:18:3a:57:6d:bf:28:9b:b3:19:8c:ae:38:74:6a:8c:
        f1:2e:e4:f5:8b:39:22:16:55:15:6e:f5:c3:cd:ab:e8:35:af:
        8c:4b
-----BEGIN CERTIFICATE-----
MIIETTCCA7agAwIBAgIBKDANBgkqhkiG9w0BAQUFADCBoDELMAkGA1UEBhMCVVMx
CzAJBgNVBAgTAk5DMRAwDgYDVQQHEwdSYWxlaWdoMRcwFQYDVQQKEw5GZWRvcmEg
UHJvamVjdDEPMA0GA1UECxMGZmVkbXNnMQ8wDQYDVQQDEwZmZWRtc2cxDzANBgNV
BCkTBmZlZG1zZzEmMCQGCSqGSIb3DQEJARYXYWRtaW5AZmVkb3JhcHJvamVjdC5v
cmcwHhcNMTIwNzE1MjExODU0WhcNMjIwNzEzMjExODU0WjCB3DELMAkGA1UEBhMC
VVMxCzAJBgNVBAgTAk5DMRAwDgYDVQQHEwdSYWxlaWdoMRcwFQYDVQQKEw5GZWRv
cmEgUHJvamVjdDEPMA0GA1UECxMGZmVkbXNnMS0wKwYDVQQDEyRmYXMtZmFzMDEu
ZGV2LnBoeDIuZmVkb3JhcHJvamVjdC5vcmcxLTArBgNVBCkTJGZhcy1mYXMwMS5k
ZXYucGh4Mi5mZWRvcmFwcm9qZWN0Lm9yZzEmMCQGCSqGSIb3DQEJARYXYWRtaW5A
ZmVkb3JhcHJvamVjdC5vcmcwgZ8wDQYJKoZIhvcNAQEBBQADgY0AMIGJAoGBAJqJ
N0lcNf3xvz8wm6DVDjm2G9cZOXkRsSbTTpvizqQQxDb9E9n16IesxJZmzMArTpTB
ZB1BZOs+SEfYIDL1a/d1FfuaKxkgeeo2y/4EzsPdj7tJrgSB+QiKGqB4Tr2DUn1E
KHI8uqJ3KL7x5ocz/ITx8JWfAmvxsTDB94p7GLq3AgMBAAGjggFXMIIBUzAJBgNV
HRMEAjAAMC0GCWCGSAGG+EIBDQQgFh5FYXN5LVJTQSBHZW5lcmF0ZWQgQ2VydGlm
aWNhdGUwHQYDVR0OBBYEFOFy5/11DM7V37X/rv9SuFEZ9HuEMIHVBgNVHSMEgc0w
gcqAFACYpdXnxFUOhKNn/mZKFuAEFd0hoYGmpIGjMIGgMQswCQYDVQQGEwJVUzEL
MAkGA1UECBMCTkMxEDAOBgNVBAcTB1JhbGVpZ2gxFzAVBgNVBAoTDkZlZG9yYSBQ
cm9qZWN0MQ8wDQYDVQQLEwZmZWRtc2cxDzANBgNVBAMTBmZlZG1zZzEPMA0GA1UE
KRMGZmVkbXNnMSYwJAYJKoZIhvcNAQkBFhdhZG1pbkBmZWRvcmFwcm9qZWN0Lm9y
Z4IJAI7rKNipE518MBMGA1UdJQQMMAoGCCsGAQUFBwMCMAsGA1UdDwQEAwIHgDAN
BgkqhkiG9w0BAQUFAAOBgQAXo8ms85cmVaWfthpP6BK4qMy48z0z9++bzpPD/f+3
UGDmJAM4RcYrzMirosLhDmfXKtgm15BHUsDP96dE1Ox5o89gmC4HNBtAVzblcbhu
/P8W2j47vP6NVSKV/7kYOldtvyibsxmMrjh0aozxLuT1izkiFlUVbvXDzavoNa+M
Sw==
-----END CERTIFICATE-----
