Certificate:
    Data:
        Version: 3 (0x2)
        Serial Number: 41 (0x29)
        Signature Algorithm: sha256WithRSAEncryption
        Issuer: C=US, ST=NC, L=Raleigh, O=Fedora Project, OU=fedmsg, CN=fedmsg/name=fedmsg/emailAddress=admin@fedoraproject.org
        Validity
            Not Before: Feb 20 11:43:13 2023 GMT
            Not After : Feb 17 11:43:13 2033 GMT
        Subject: C=US, ST=NC, L=Raleigh, O=Fedora Project, OU=fedmsg, CN=fedoratagger-packages01.phx2.fedoraproject.org/name=fedoratagger-packages01.phx2.fedoraproject.org/emailAddress=admin@fedoraproject.org
        Subject Public Key Info:
            Public Key Algorithm: rsaEncryption
                Public-Key: (1024 bit)
                Modulus:
                    00:d5:57:5d:e3:78:b5:62:32:60:f8:c8:6b:8e:8a:
                    2f:70:95:fb:09:4e:ba:2a:1f:9d:41:1e:18:cf:45:
                    0b:4f:a2:5c:3a:d1:f7:db:d2:77:11:ce:28:77:44:
                    ea:a6:f8:73:93:f7:b0:0b:1e:e9:74:45:d9:ba:e7:
                    91:0d:05:fb:7a:59:33:14:30:1f:c9:80:d9:ae:d8:
                    88:4b:81:b8:03:94:6c:0c:c6:98:ff:0d:18:eb:1e:
                    83:4e:c7:79:32:2f:45:ff:a0:99:47:b2:7e:22:f5:
                    25:df:28:3b:18:e3:a1:bd:ce:a6:c9:2a:67:ea:dd:
                    6f:54:4f:81:3f:cc:3d:3c:a1
                Exponent: 65537 (0x10001)
        X509v3 extensions:
            X509v3 Basic Constraints: 
                CA:FALSE
            Netscape Comment: 
                Easy-RSA Generated Certificate
            X509v3 Subject Key Identifier: 
                22:64:FE:CA:A8:AF:8B:06:0B:83:8F:8A:1F:0D:2F:2F:53:D3:B6:B3
            X509v3 Authority Key Identifier: 
                keyid:85:3B:0B:B5:86:22:32:DD:BD:F8:E1:7C:89:C3:20:AD:CA:44:B5:38
                DirName:/C=US/ST=NC/L=Raleigh/O=Fedora Project/OU=fedmsg/CN=fedmsg/name=fedmsg/emailAddress=admin@fedoraproject.org
                serial:31:18:5F:9A:5C:BE:C6:64:1E:FD:20:B3:37:B2:B2:16:FB:E0:C0:F6
            X509v3 Extended Key Usage: 
                TLS Web Client Authentication
            X509v3 Key Usage: 
                Digital Signature
    Signature Algorithm: sha256WithRSAEncryption
    Signature Value:
        84:a6:a8:a2:84:2c:1b:07:ef:76:5e:e3:3a:2b:cd:3d:74:f3:
        39:0d:12:a2:4c:be:3f:72:21:3f:c5:da:ac:4d:ab:04:3a:a0:
        96:93:10:9e:3b:a4:b5:ea:fc:e6:6b:4c:cb:9f:86:e0:ca:82:
        c8:78:09:e1:fb:4b:69:b6:f0:c2:a1:4b:06:ff:b4:0e:87:4b:
        3a:bd:42:8e:ad:a3:60:d7:27:ad:f3:fa:e4:90:fc:6d:ab:01:
        f4:b5:bb:9d:2d:3a:2c:67:98:c3:3a:bf:a6:33:6e:c6:d8:67:
        a7:56:89:5f:9d:d3:8f:78:ea:dc:79:c8:11:46:9f:52:69:62:
        6f:ef
-----BEGIN CERTIFICATE-----
MIIEbDCCA9WgAwIBAgIBKTANBgkqhkiG9w0BAQsFADCBoDELMAkGA1UEBhMCVVMx
CzAJBgNVBAgTAk5DMRAwDgYDVQQHEwdSYWxlaWdoMRcwFQYDVQQKEw5GZWRvcmEg
UHJvamVjdDEPMA0GA1UECxMGZmVkbXNnMQ8wDQYDVQQDEwZmZWRtc2cxDzANBgNV
BCkTBmZlZG1zZzEmMCQGCSqGSIb3DQEJARYXYWRtaW5AZmVkb3JhcHJvamVjdC5v
cmcwHhcNMjMwMjIwMTE0MzEzWhcNMzMwMjE3MTE0MzEzWjCB8DELMAkGA1UEBhMC
VVMxCzAJBgNVBAgTAk5DMRAwDgYDVQQHEwdSYWxlaWdoMRcwFQYDVQQKEw5GZWRv
cmEgUHJvamVjdDEPMA0GA1UECxMGZmVkbXNnMTcwNQYDVQQDEy5mZWRvcmF0YWdn
ZXItcGFja2FnZXMwMS5waHgyLmZlZG9yYXByb2plY3Qub3JnMTcwNQYDVQQpEy5m
ZWRvcmF0YWdnZXItcGFja2FnZXMwMS5waHgyLmZlZG9yYXByb2plY3Qub3JnMSYw
JAYJKoZIhvcNAQkBFhdhZG1pbkBmZWRvcmFwcm9qZWN0Lm9yZzCBnzANBgkqhkiG
9w0BAQEFAAOBjQAwgYkCgYEA1Vdd43i1YjJg+MhrjoovcJX7CU66Kh+dQR4Yz0UL
T6JcOtH329J3Ec4od0Tqpvhzk/ewCx7pdEXZuueRDQX7elkzFDAfyYDZrtiIS4G4
A5RsDMaY/w0Y6x6DTsd5Mi9F/6CZR7J+IvUl3yg7GOOhvc6mySpn6t1vVE+BP8w9
PKECAwEAAaOCAWIwggFeMAkGA1UdEwQCMAAwLQYJYIZIAYb4QgENBCAWHkVhc3kt
UlNBIEdlbmVyYXRlZCBDZXJ0aWZpY2F0ZTAdBgNVHQ4EFgQUImT+yqiviwYLg4+K
Hw0vL1PTtrMwgeAGA1UdIwSB2DCB1YAUhTsLtYYiMt29+OF8icMgrcpEtTihgaak
gaMwgaAxCzAJBgNVBAYTAlVTMQswCQYDVQQIEwJOQzEQMA4GA1UEBxMHUmFsZWln
aDEXMBUGA1UEChMORmVkb3JhIFByb2plY3QxDzANBgNVBAsTBmZlZG1zZzEPMA0G
A1UEAxMGZmVkbXNnMQ8wDQYDVQQpEwZmZWRtc2cxJjAkBgkqhkiG9w0BCQEWF2Fk
bWluQGZlZG9yYXByb2plY3Qub3JnghQxGF+aXL7GZB79ILM3srIW++DA9jATBgNV
HSUEDDAKBggrBgEFBQcDAjALBgNVHQ8EBAMCB4AwDQYJKoZIhvcNAQELBQADgYEA
hKaoooQsGwfvdl7jOivNPXTzOQ0Soky+P3IhP8XarE2rBDqglpMQnjukter85mtM
y5+G4MqCyHgJ4ftLabbwwqFLBv+0DodLOr1Cjq2jYNcnrfP65JD8basB9LW7nS06
LGeYwzq/pjNuxthnp1aJX53Tj3jq3HnIEUafUmlib+8=
-----END CERTIFICATE-----
