Certificate:
    Data:
        Version: 3 (0x2)
        Serial Number: 42 (0x2a)
        Signature Algorithm: sha256WithRSAEncryption
        Issuer: C=US, ST=NC, L=Raleigh, O=Fedora Project, OU=fedmsg, CN=fedmsg/name=fedmsg/emailAddress=admin@fedoraproject.org
        Validity
            Not Before: Feb 20 11:43:13 2023 GMT
            Not After : Feb 17 11:43:13 2033 GMT
        Subject: C=US, ST=NC, L=Raleigh, O=Fedora Project, OU=fedmsg, CN=fedoratagger-packages02.phx2.fedoraproject.org/name=fedoratagger-packages02.phx2.fedoraproject.org/emailAddress=admin@fedoraproject.org
        Subject Public Key Info:
            Public Key Algorithm: rsaEncryption
                Public-Key: (1024 bit)
                Modulus:
                    00:c3:c0:c8:49:f5:43:c0:b3:6c:9a:20:66:39:32:
                    03:a0:51:cc:08:67:19:77:7d:5e:db:c2:39:bb:15:
                    a2:fa:b1:48:7b:73:8c:da:39:e0:6d:ba:c6:d2:fe:
                    a5:02:72:65:2e:62:b0:87:50:48:9b:1b:1c:23:7b:
                    8d:21:80:0e:b4:e2:1f:c2:c7:4a:83:93:bd:72:6c:
                    5c:e9:18:d7:68:cd:1a:3e:ec:1a:c5:11:00:7b:21:
                    d4:3e:df:31:19:7b:fd:45:00:37:f9:fb:bf:74:8b:
                    e3:34:f8:e2:d3:68:35:cd:9e:94:53:ca:27:7c:21:
                    45:a0:53:0c:d0:ce:6d:dd:0b
                Exponent: 65537 (0x10001)
        X509v3 extensions:
            X509v3 Basic Constraints: 
                CA:FALSE
            Netscape Comment: 
                Easy-RSA Generated Certificate
            X509v3 Subject Key Identifier: 
                FC:FE:F4:CC:F1:B4:CE:75:4E:4A:3C:37:DF:A7:22:5E:2E:EE:31:8C
            X509v3 Authority Key Identifier: 
                keyid:85:3B:0B:B5:86:22:32:DD:BD:F8:E1:7C:89:C3:20:AD:CA:44:B5:38
                DirName:/C=US/ST=NC/L=Raleigh/O=Fedora Project/OU=fedmsg/CN=fedmsg/name=fedmsg/emailAddress=admin@fedoraproject.org
                serial:31:18:5F:9A:5C:BE:C6:64:1E:FD:20:B3:37:B2:B2:16:FB:E0:C0:F6
            X509v3 Extended Key Usage: 
                TLS Web Client Authentication
            X509v3 Key Usage: 
                Digital Signature
    Signature Algorithm: sha256WithRSAEncryption
    Signature Value:
        61:a5:71:77:60:94:54:f4:5d:69:de:dc:a7:7b:05:97:60:18:
        b1:aa:02:b1:a1:55:9d:8d:98:2f:3c:93:b1:aa:3d:4c:6b:9c:
        0b:8f:53:b2:6e:96:30:4c:be:8a:ba:d1:74:56:07:20:44:d1:
        75:3d:3d:fa:5f:d9:f0:b8:9b:40:c2:1e:c6:4b:54:7f:46:20:
        cd:3a:13:10:d3:d6:86:b8:8e:26:ed:f9:2f:d4:4f:b3:c6:b2:
        93:80:4b:43:f6:84:ad:dd:8f:ee:57:7a:fe:7e:49:fe:d2:67:
        b4:41:3c:1b:6c:74:23:98:7d:72:ba:ed:57:3e:46:38:82:34:
        4c:39
-----BEGIN CERTIFICATE-----
MIIEbDCCA9WgAwIBAgIBKjANBgkqhkiG9w0BAQsFADCBoDELMAkGA1UEBhMCVVMx
CzAJBgNVBAgTAk5DMRAwDgYDVQQHEwdSYWxlaWdoMRcwFQYDVQQKEw5GZWRvcmEg
UHJvamVjdDEPMA0GA1UECxMGZmVkbXNnMQ8wDQYDVQQDEwZmZWRtc2cxDzANBgNV
BCkTBmZlZG1zZzEmMCQGCSqGSIb3DQEJARYXYWRtaW5AZmVkb3JhcHJvamVjdC5v
cmcwHhcNMjMwMjIwMTE0MzEzWhcNMzMwMjE3MTE0MzEzWjCB8DELMAkGA1UEBhMC
VVMxCzAJBgNVBAgTAk5DMRAwDgYDVQQHEwdSYWxlaWdoMRcwFQYDVQQKEw5GZWRv
cmEgUHJvamVjdDEPMA0GA1UECxMGZmVkbXNnMTcwNQYDVQQDEy5mZWRvcmF0YWdn
ZXItcGFja2FnZXMwMi5waHgyLmZlZG9yYXByb2plY3Qub3JnMTcwNQYDVQQpEy5m
ZWRvcmF0YWdnZXItcGFja2FnZXMwMi5waHgyLmZlZG9yYXByb2plY3Qub3JnMSYw
JAYJKoZIhvcNAQkBFhdhZG1pbkBmZWRvcmFwcm9qZWN0Lm9yZzCBnzANBgkqhkiG
9w0BAQEFAAOBjQAwgYkCgYEAw8DISfVDwLNsmiBmOTIDoFHMCGcZd31e28I5uxWi
+rFIe3OM2jngbbrG0v6lAnJlLmKwh1BImxscI3uNIYAOtOIfwsdKg5O9cmxc6RjX
aM0aPuwaxREAeyHUPt8xGXv9RQA3+fu/dIvjNPji02g1zZ6UU8onfCFFoFMM0M5t
3QsCAwEAAaOCAWIwggFeMAkGA1UdEwQCMAAwLQYJYIZIAYb4QgENBCAWHkVhc3kt
UlNBIEdlbmVyYXRlZCBDZXJ0aWZpY2F0ZTAdBgNVHQ4EFgQU/P70zPG0znVOSjw3
36ciXi7uMYwwgeAGA1UdIwSB2DCB1YAUhTsLtYYiMt29+OF8icMgrcpEtTihgaak
gaMwgaAxCzAJBgNVBAYTAlVTMQswCQYDVQQIEwJOQzEQMA4GA1UEBxMHUmFsZWln
aDEXMBUGA1UEChMORmVkb3JhIFByb2plY3QxDzANBgNVBAsTBmZlZG1zZzEPMA0G
A1UEAxMGZmVkbXNnMQ8wDQYDVQQpEwZmZWRtc2cxJjAkBgkqhkiG9w0BCQEWF2Fk
bWluQGZlZG9yYXByb2plY3Qub3JnghQxGF+aXL7GZB79ILM3srIW++DA9jATBgNV
HSUEDDAKBggrBgEFBQcDAjALBgNVHQ8EBAMCB4AwDQYJKoZIhvcNAQELBQADgYEA
YaVxd2CUVPRdad7cp3sFl2AYsaoCsaFVnY2YLzyTsao9TGucC49Tsm6WMEy+irrR
dFYHIETRdT09+l/Z8LibQMIexktUf0YgzToTENPWhriOJu35L9RPs8ayk4BLQ/aE
rd2P7ld6/n5J/tJntEE8G2x0I5h9crrtVz5GOII0TDk=
-----END CERTIFICATE-----
