Certificate:
    Data:
        Version: 3 (0x2)
        Serial Number: 43 (0x2b)
        Signature Algorithm: sha256WithRSAEncryption
        Issuer: C=US, ST=NC, L=Raleigh, O=Fedora Project, OU=fedmsg, CN=fedmsg/name=fedmsg/emailAddress=admin@fedoraproject.org
        Validity
            Not Before: Feb 20 11:43:13 2023 GMT
            Not After : Feb 17 11:43:13 2033 GMT
        Subject: C=US, ST=NC, L=Raleigh, O=Fedora Project, OU=fedmsg, CN=fedoratagger-packages01.stg.phx2.fedoraproject.org/name=fedoratagger-packages01.stg.phx2.fedoraproject.org/emailAddress=admin@fedoraproject.org
        Subject Public Key Info:
            Public Key Algorithm: rsaEncryption
                Public-Key: (1024 bit)
                Modulus:
                    00:b1:ba:ac:9c:b3:df:95:cc:8d:3c:dc:15:b7:8c:
                    27:17:4a:b4:a2:aa:de:36:82:fc:d2:8f:0e:85:5c:
                    df:8e:21:55:b5:f7:7f:5e:ba:7c:7b:a0:e4:af:98:
                    aa:0b:a8:b1:59:2e:52:79:f6:e8:96:7c:5f:d6:80:
                    19:cc:17:a2:fd:7d:4f:bb:be:5d:5e:c8:a0:17:e8:
                    90:1c:ed:95:ec:01:92:4a:fc:29:18:a4:74:0f:bc:
                    2d:d3:0b:b2:2e:84:ec:1c:11:a7:dd:85:f8:94:5f:
                    9e:4c:40:1a:8a:4b:08:6c:0c:34:32:8f:22:f8:1e:
                    cf:64:03:ce:8a:c8:cd:e8:71
                Exponent: 65537 (0x10001)
        X509v3 extensions:
            X509v3 Basic Constraints: 
                CA:FALSE
            Netscape Comment: 
                Easy-RSA Generated Certificate
            X509v3 Subject Key Identifier: 
                1E:D2:1D:78:77:0E:54:25:6B:E4:F0:30:12:35:C7:40:EC:52:10:9D
            X509v3 Authority Key Identifier: 
                keyid:85:3B:0B:B5:86:22:32:DD:BD:F8:E1:7C:89:C3:20:AD:CA:44:B5:38
                DirName:/C=US/ST=NC/L=Raleigh/O=Fedora Project/OU=fedmsg/CN=fedmsg/name=fedmsg/emailAddress=admin@fedoraproject.org
                serial:31:18:5F:9A:5C:BE:C6:64:1E:FD:20:B3:37:B2:B2:16:FB:E0:C0:F6
            X509v3 Extended Key Usage: 
                TLS Web Client Authentication
            X509v3 Key Usage: 
                Digital Signature
    Signature Algorithm: sha256WithRSAEncryption
    Signature Value:
        35:7a:ee:cd:69:c3:0f:a9:05:94:7d:9d:c9:f2:e7:ab:a4:5d:
        dd:6a:52:80:5c:2f:35:bd:1d:62:40:e1:b2:18:1c:b2:8a:69:
        d7:f3:18:0a:83:3a:76:b5:82:9d:9a:6a:7d:9c:5c:59:08:83:
        2f:cb:14:4e:54:d0:b7:e5:e3:53:fb:0a:e5:e2:8a:eb:d1:81:
        56:d3:59:02:17:ae:07:6c:df:dc:9d:07:56:03:6a:c1:03:03:
        72:24:b0:2c:4b:d9:80:c1:ba:64:5c:3f:4c:4f:95:35:d5:7a:
        2e:e1:c4:63:b6:c9:e1:05:38:9e:b3:3e:73:51:32:36:82:85:
        6e:f6
-----BEGIN CERTIFICATE-----
MIIEdDCCA92gAwIBAgIBKzANBgkqhkiG9w0BAQsFADCBoDELMAkGA1UEBhMCVVMx
CzAJBgNVBAgTAk5DMRAwDgYDVQQHEwdSYWxlaWdoMRcwFQYDVQQKEw5GZWRvcmEg
UHJvamVjdDEPMA0GA1UECxMGZmVkbXNnMQ8wDQYDVQQDEwZmZWRtc2cxDzANBgNV
BCkTBmZlZG1zZzEmMCQGCSqGSIb3DQEJARYXYWRtaW5AZmVkb3JhcHJvamVjdC5v
cmcwHhcNMjMwMjIwMTE0MzEzWhcNMzMwMjE3MTE0MzEzWjCB+DELMAkGA1UEBhMC
VVMxCzAJBgNVBAgTAk5DMRAwDgYDVQQHEwdSYWxlaWdoMRcwFQYDVQQKEw5GZWRv
cmEgUHJvamVjdDEPMA0GA1UECxMGZmVkbXNnMTswOQYDVQQDEzJmZWRvcmF0YWdn
ZXItcGFja2FnZXMwMS5zdGcucGh4Mi5mZWRvcmFwcm9qZWN0Lm9yZzE7MDkGA1UE
KRMyZmVkb3JhdGFnZ2VyLXBhY2thZ2VzMDEuc3RnLnBoeDIuZmVkb3JhcHJvamVj
dC5vcmcxJjAkBgkqhkiG9w0BCQEWF2FkbWluQGZlZG9yYXByb2plY3Qub3JnMIGf
MA0GCSqGSIb3DQEBAQUAA4GNADCBiQKBgQCxuqycs9+VzI083BW3jCcXSrSiqt42
gvzSjw6FXN+OIVW1939eunx7oOSvmKoLqLFZLlJ59uiWfF/WgBnMF6L9fU+7vl1e
yKAX6JAc7ZXsAZJK/CkYpHQPvC3TC7IuhOwcEafdhfiUX55MQBqKSwhsDDQyjyL4
Hs9kA86KyM3ocQIDAQABo4IBYjCCAV4wCQYDVR0TBAIwADAtBglghkgBhvhCAQ0E
IBYeRWFzeS1SU0EgR2VuZXJhdGVkIENlcnRpZmljYXRlMB0GA1UdDgQWBBQe0h14
dw5UJWvk8DASNcdA7FIQnTCB4AYDVR0jBIHYMIHVgBSFOwu1hiIy3b344XyJwyCt
ykS1OKGBpqSBozCBoDELMAkGA1UEBhMCVVMxCzAJBgNVBAgTAk5DMRAwDgYDVQQH
EwdSYWxlaWdoMRcwFQYDVQQKEw5GZWRvcmEgUHJvamVjdDEPMA0GA1UECxMGZmVk
bXNnMQ8wDQYDVQQDEwZmZWRtc2cxDzANBgNVBCkTBmZlZG1zZzEmMCQGCSqGSIb3
DQEJARYXYWRtaW5AZmVkb3JhcHJvamVjdC5vcmeCFDEYX5pcvsZkHv0gszeyshb7
4MD2MBMGA1UdJQQMMAoGCCsGAQUFBwMCMAsGA1UdDwQEAwIHgDANBgkqhkiG9w0B
AQsFAAOBgQA1eu7NacMPqQWUfZ3J8uerpF3dalKAXC81vR1iQOGyGByyimnX8xgK
gzp2tYKdmmp9nFxZCIMvyxROVNC35eNT+wrl4orr0YFW01kCF64HbN/cnQdWA2rB
AwNyJLAsS9mAwbpkXD9MT5U11Xou4cRjtsnhBTiesz5zUTI2goVu9g==
-----END CERTIFICATE-----
