Certificate:
    Data:
        Version: 3 (0x2)
        Serial Number: 44 (0x2c)
        Signature Algorithm: sha1WithRSAEncryption
        Issuer: C=US, ST=NC, L=Raleigh, O=Fedora Project, OU=fedmsg, CN=fedmsg/name=fedmsg/emailAddress=admin@fedoraproject.org
        Validity
            Not Before: Jul 15 21:18:54 2012 GMT
            Not After : Jul 13 21:18:54 2022 GMT
        Subject: C=US, ST=NC, L=Raleigh, O=Fedora Project, OU=fedmsg, CN=scm-pkgs01.phx2.fedoraproject.org/name=scm-pkgs01.phx2.fedoraproject.org/emailAddress=admin@fedoraproject.org
        Subject Public Key Info:
            Public Key Algorithm: rsaEncryption
                Public-Key: (1024 bit)
                Modulus:
                    00:e0:3a:03:28:47:ce:e4:cc:da:67:55:cd:e4:b4:
                    93:43:69:a8:d5:6e:06:a1:7f:a5:e1:56:40:ef:84:
                    9d:62:ab:e4:0c:d0:01:ec:c1:60:66:55:ba:12:28:
                    74:92:82:62:28:cb:11:7b:56:38:7e:fe:91:75:06:
                    e7:4e:56:c4:1c:01:cf:25:2c:54:cf:68:5a:c9:02:
                    6b:10:46:79:65:30:1d:76:e1:5d:e1:79:6b:7b:ef:
                    dd:09:d8:c1:8a:0d:10:f8:7d:2d:e9:0b:bc:67:a7:
                    25:55:ad:f0:3c:6f:09:61:a1:b9:e8:29:4a:65:d1:
                    f4:ac:80:45:d7:39:2b:8b:cf
                Exponent: 65537 (0x10001)
        X509v3 extensions:
            X509v3 Basic Constraints: 
                CA:FALSE
            Netscape Comment: 
                Easy-RSA Generated Certificate
            X509v3 Subject Key Identifier: 
                1E:CA:5C:34:1E:F1:2E:A1:94:37:14:01:10:43:9A:17:DF:38:7C:01
            X509v3 Authority Key Identifier: 
                keyid:00:98:A5:D5:E7:C4:55:0E:84:A3:67:FE:66:4A:16:E0:04:15:DD:21
                DirName:/C=US/ST=NC/L=Raleigh/O=Fedora Project/OU=fedmsg/CN=fedmsg/name=fedmsg/emailAddress=admin@fedoraproject.org
                serial:8E:EB:28:D8:A9:13:9D:7C

            X509v3 Extended Key Usage: 
                TLS Web Client Authentication
            X509v3 Key Usage: 
                Digital Signature
    Signature Algorithm: sha1WithRSAEncryption
        29:b1:60:50:bc:5f:cc:3c:11:a1:c5:64:eb:e1:df:59:c7:fc:
        ba:dd:37:9c:51:0e:c8:0c:b6:ce:52:37:6a:f5:8b:9b:cd:36:
        1a:84:ad:65:64:dd:32:24:f9:f1:91:c9:63:76:f5:ee:52:19:
        3f:af:44:a2:c4:3c:69:2e:20:31:85:97:81:ae:71:b9:f5:e2:
        46:82:71:8d:4d:f4:20:6e:8f:6c:5b:04:2e:74:b4:24:1e:c2:
        62:d9:7d:b5:14:cd:0f:b8:3d:af:be:49:b9:6d:67:25:0b:06:
        63:dd:9e:de:16:e8:9e:99:0e:8f:38:0e:6b:2d:1d:11:46:e5:
        c2:2a
-----BEGIN CERTIFICATE-----
MIIERzCCA7CgAwIBAgIBLDANBgkqhkiG9w0BAQUFADCBoDELMAkGA1UEBhMCVVMx
CzAJBgNVBAgTAk5DMRAwDgYDVQQHEwdSYWxlaWdoMRcwFQYDVQQKEw5GZWRvcmEg
UHJvamVjdDEPMA0GA1UECxMGZmVkbXNnMQ8wDQYDVQQDEwZmZWRtc2cxDzANBgNV
BCkTBmZlZG1zZzEmMCQGCSqGSIb3DQEJARYXYWRtaW5AZmVkb3JhcHJvamVjdC5v
cmcwHhcNMTIwNzE1MjExODU0WhcNMjIwNzEzMjExODU0WjCB1jELMAkGA1UEBhMC
VVMxCzAJBgNVBAgTAk5DMRAwDgYDVQQHEwdSYWxlaWdoMRcwFQYDVQQKEw5GZWRv
cmEgUHJvamVjdDEPMA0GA1UECxMGZmVkbXNnMSowKAYDVQQDEyFzY20tcGtnczAx
LnBoeDIuZmVkb3JhcHJvamVjdC5vcmcxKjAoBgNVBCkTIXNjbS1wa2dzMDEucGh4
Mi5mZWRvcmFwcm9qZWN0Lm9yZzEmMCQGCSqGSIb3DQEJARYXYWRtaW5AZmVkb3Jh
cHJvamVjdC5vcmcwgZ8wDQYJKoZIhvcNAQEBBQADgY0AMIGJAoGBAOA6AyhHzuTM
2mdVzeS0k0NpqNVuBqF/peFWQO+EnWKr5AzQAezBYGZVuhIodJKCYijLEXtWOH7+
kXUG505WxBwBzyUsVM9oWskCaxBGeWUwHXbhXeF5a3vv3QnYwYoNEPh9LekLvGen
JVWt8DxvCWGhuegpSmXR9KyARdc5K4vPAgMBAAGjggFXMIIBUzAJBgNVHRMEAjAA
MC0GCWCGSAGG+EIBDQQgFh5FYXN5LVJTQSBHZW5lcmF0ZWQgQ2VydGlmaWNhdGUw
HQYDVR0OBBYEFB7KXDQe8S6hlDcUARBDmhffOHwBMIHVBgNVHSMEgc0wgcqAFACY
pdXnxFUOhKNn/mZKFuAEFd0hoYGmpIGjMIGgMQswCQYDVQQGEwJVUzELMAkGA1UE
CBMCTkMxEDAOBgNVBAcTB1JhbGVpZ2gxFzAVBgNVBAoTDkZlZG9yYSBQcm9qZWN0
MQ8wDQYDVQQLEwZmZWRtc2cxDzANBgNVBAMTBmZlZG1zZzEPMA0GA1UEKRMGZmVk
bXNnMSYwJAYJKoZIhvcNAQkBFhdhZG1pbkBmZWRvcmFwcm9qZWN0Lm9yZ4IJAI7r
KNipE518MBMGA1UdJQQMMAoGCCsGAQUFBwMCMAsGA1UdDwQEAwIHgDANBgkqhkiG
9w0BAQUFAAOBgQApsWBQvF/MPBGhxWTr4d9Zx/y63TecUQ7IDLbOUjdq9YubzTYa
hK1lZN0yJPnxkcljdvXuUhk/r0SixDxpLiAxhZeBrnG59eJGgnGNTfQgbo9sWwQu
dLQkHsJi2X21FM0PuD2vvkm5bWclCwZj3Z7eFuiemQ6POA5rLR0RRuXCKg==
-----END CERTIFICATE-----
