Certificate:
    Data:
        Version: 3 (0x2)
        Serial Number: 44 (0x2c)
        Signature Algorithm: sha256WithRSAEncryption
        Issuer: C=US, ST=NC, L=Raleigh, O=Fedora Project, OU=fedmsg, CN=fedmsg/name=fedmsg/emailAddress=admin@fedoraproject.org
        Validity
            Not Before: Feb 20 11:43:13 2023 GMT
            Not After : Feb 17 11:43:13 2033 GMT
        Subject: C=US, ST=NC, L=Raleigh, O=Fedora Project, OU=fedmsg, CN=scm-pkgs01.phx2.fedoraproject.org/name=scm-pkgs01.phx2.fedoraproject.org/emailAddress=admin@fedoraproject.org
        Subject Public Key Info:
            Public Key Algorithm: rsaEncryption
                Public-Key: (1024 bit)
                Modulus:
                    00:a6:c2:82:45:e2:9c:e3:5a:49:38:80:67:64:41:
                    b1:6d:0e:80:7c:9c:d3:83:31:1e:00:46:b1:e2:d9:
                    55:29:b2:93:e1:75:d9:d8:32:ad:6d:57:fa:cf:15:
                    c6:a8:70:fb:27:b2:d4:96:1b:cb:12:ae:03:a7:d8:
                    93:f9:72:4b:7b:cf:4a:99:89:86:0e:84:30:e4:21:
                    53:6c:eb:a4:63:01:1f:df:89:b9:b7:9b:e6:81:a3:
                    28:73:61:00:fc:e5:68:ce:46:7e:00:ef:e9:4a:0f:
                    63:04:7c:15:8c:7c:8e:4f:3c:c6:ff:88:fe:e7:61:
                    d1:2f:a0:ec:23:39:c1:e2:b5
                Exponent: 65537 (0x10001)
        X509v3 extensions:
            X509v3 Basic Constraints: 
                CA:FALSE
            Netscape Comment: 
                Easy-RSA Generated Certificate
            X509v3 Subject Key Identifier: 
                05:2F:02:32:2B:A2:85:F5:A3:07:BE:DB:2C:56:97:1D:F0:4D:7C:1F
            X509v3 Authority Key Identifier: 
                keyid:85:3B:0B:B5:86:22:32:DD:BD:F8:E1:7C:89:C3:20:AD:CA:44:B5:38
                DirName:/C=US/ST=NC/L=Raleigh/O=Fedora Project/OU=fedmsg/CN=fedmsg/name=fedmsg/emailAddress=admin@fedoraproject.org
                serial:31:18:5F:9A:5C:BE:C6:64:1E:FD:20:B3:37:B2:B2:16:FB:E0:C0:F6
            X509v3 Extended Key Usage: 
                TLS Web Client Authentication
            X509v3 Key Usage: 
                Digital Signature
    Signature Algorithm: sha256WithRSAEncryption
    Signature Value:
        62:1c:a6:92:36:91:09:cd:39:c3:d4:c4:ac:d2:0c:58:a2:02:
        ca:27:29:1d:56:ee:d5:e1:61:72:b2:8f:e5:ea:d9:59:79:1c:
        84:04:c3:0d:c3:6f:2b:ee:b9:62:b6:ae:df:3d:e3:67:9e:93:
        a4:21:40:cd:82:2c:d6:a0:fa:9d:ef:62:13:b2:27:2d:fd:94:
        f0:1a:be:1c:e4:e8:6e:9b:13:f7:ec:38:05:cd:a5:7e:02:6f:
        0c:57:fc:76:ab:b6:ad:2c:f6:ae:3e:6f:8e:f7:6f:52:fd:2e:
        89:3e:5c:76:c4:a7:86:4e:a2:f6:22:b1:9a:5c:b2:1f:1d:68:
        e4:2d
-----BEGIN CERTIFICATE-----
MIIEUjCCA7ugAwIBAgIBLDANBgkqhkiG9w0BAQsFADCBoDELMAkGA1UEBhMCVVMx
CzAJBgNVBAgTAk5DMRAwDgYDVQQHEwdSYWxlaWdoMRcwFQYDVQQKEw5GZWRvcmEg
UHJvamVjdDEPMA0GA1UECxMGZmVkbXNnMQ8wDQYDVQQDEwZmZWRtc2cxDzANBgNV
BCkTBmZlZG1zZzEmMCQGCSqGSIb3DQEJARYXYWRtaW5AZmVkb3JhcHJvamVjdC5v
cmcwHhcNMjMwMjIwMTE0MzEzWhcNMzMwMjE3MTE0MzEzWjCB1jELMAkGA1UEBhMC
VVMxCzAJBgNVBAgTAk5DMRAwDgYDVQQHEwdSYWxlaWdoMRcwFQYDVQQKEw5GZWRv
cmEgUHJvamVjdDEPMA0GA1UECxMGZmVkbXNnMSowKAYDVQQDEyFzY20tcGtnczAx
LnBoeDIuZmVkb3JhcHJvamVjdC5vcmcxKjAoBgNVBCkTIXNjbS1wa2dzMDEucGh4
Mi5mZWRvcmFwcm9qZWN0Lm9yZzEmMCQGCSqGSIb3DQEJARYXYWRtaW5AZmVkb3Jh
cHJvamVjdC5vcmcwgZ8wDQYJKoZIhvcNAQEBBQADgY0AMIGJAoGBAKbCgkXinONa
STiAZ2RBsW0OgHyc04MxHgBGseLZVSmyk+F12dgyrW1X+s8Vxqhw+yey1JYbyxKu
A6fYk/lyS3vPSpmJhg6EMOQhU2zrpGMBH9+Jubeb5oGjKHNhAPzlaM5GfgDv6UoP
YwR8FYx8jk88xv+I/udh0S+g7CM5weK1AgMBAAGjggFiMIIBXjAJBgNVHRMEAjAA
MC0GCWCGSAGG+EIBDQQgFh5FYXN5LVJTQSBHZW5lcmF0ZWQgQ2VydGlmaWNhdGUw
HQYDVR0OBBYEFAUvAjIrooX1owe+2yxWlx3wTXwfMIHgBgNVHSMEgdgwgdWAFIU7
C7WGIjLdvfjhfInDIK3KRLU4oYGmpIGjMIGgMQswCQYDVQQGEwJVUzELMAkGA1UE
CBMCTkMxEDAOBgNVBAcTB1JhbGVpZ2gxFzAVBgNVBAoTDkZlZG9yYSBQcm9qZWN0
MQ8wDQYDVQQLEwZmZWRtc2cxDzANBgNVBAMTBmZlZG1zZzEPMA0GA1UEKRMGZmVk
bXNnMSYwJAYJKoZIhvcNAQkBFhdhZG1pbkBmZWRvcmFwcm9qZWN0Lm9yZ4IUMRhf
mly+xmQe/SCzN7KyFvvgwPYwEwYDVR0lBAwwCgYIKwYBBQUHAwIwCwYDVR0PBAQD
AgeAMA0GCSqGSIb3DQEBCwUAA4GBAGIcppI2kQnNOcPUxKzSDFiiAsonKR1W7tXh
YXKyj+Xq2Vl5HIQEww3DbyvuuWK2rt8942eek6QhQM2CLNag+p3vYhOyJy39lPAa
vhzk6G6bE/fsOAXNpX4CbwxX/Hartq0s9q4+b473b1L9Lok+XHbEp4ZOovYisZpc
sh8daOQt
-----END CERTIFICATE-----
