Certificate:
    Data:
        Version: 3 (0x2)
        Serial Number: 45 (0x2d)
        Signature Algorithm: sha256WithRSAEncryption
        Issuer: C=US, ST=NC, L=Raleigh, O=Fedora Project, OU=fedmsg, CN=fedmsg/name=fedmsg/emailAddress=admin@fedoraproject.org
        Validity
            Not Before: Feb 20 11:43:13 2023 GMT
            Not After : Feb 17 11:43:13 2033 GMT
        Subject: C=US, ST=NC, L=Raleigh, O=Fedora Project, OU=fedmsg, CN=scm-pkgs01.stg.phx2.fedoraproject.org/name=scm-pkgs01.stg.phx2.fedoraproject.org/emailAddress=admin@fedoraproject.org
        Subject Public Key Info:
            Public Key Algorithm: rsaEncryption
                Public-Key: (1024 bit)
                Modulus:
                    00:e2:e9:46:26:61:14:56:68:b1:c7:90:d3:03:43:
                    9c:bb:a3:76:4a:55:f6:bc:4a:89:b1:e2:c4:18:09:
                    7e:51:80:da:1a:b0:a5:39:8f:cb:6a:e6:39:0d:02:
                    2e:c7:57:10:99:00:b0:c0:00:31:b5:16:af:c1:e5:
                    56:23:7a:72:af:67:27:34:8b:29:b3:ba:b6:4c:1e:
                    9e:d0:0b:55:d5:37:7e:17:36:d4:6f:da:93:27:6c:
                    d0:21:b4:c7:b7:45:e3:da:b9:cc:e8:76:b3:da:23:
                    d1:66:24:dd:64:45:03:09:46:34:07:d8:3b:49:6b:
                    f9:74:17:a3:6c:a8:ae:ae:0b
                Exponent: 65537 (0x10001)
        X509v3 extensions:
            X509v3 Basic Constraints: 
                CA:FALSE
            Netscape Comment: 
                Easy-RSA Generated Certificate
            X509v3 Subject Key Identifier: 
                6D:98:93:BE:89:D6:98:D8:EB:AC:5A:39:BB:BC:6B:34:13:F1:BA:B6
            X509v3 Authority Key Identifier: 
                keyid:85:3B:0B:B5:86:22:32:DD:BD:F8:E1:7C:89:C3:20:AD:CA:44:B5:38
                DirName:/C=US/ST=NC/L=Raleigh/O=Fedora Project/OU=fedmsg/CN=fedmsg/name=fedmsg/emailAddress=admin@fedoraproject.org
                serial:31:18:5F:9A:5C:BE:C6:64:1E:FD:20:B3:37:B2:B2:16:FB:E0:C0:F6
            X509v3 Extended Key Usage: 
                TLS Web Client Authentication
            X509v3 Key Usage: 
                Digital Signature
    Signature Algorithm: sha256WithRSAEncryption
    Signature Value:
        ac:76:92:f0:ea:7e:c6:64:6c:72:96:df:1b:57:1a:f2:a6:8b:
        bd:e0:f8:db:04:ab:a6:28:0a:05:e0:48:36:f9:22:b3:d7:da:
        55:80:36:95:39:3d:ce:2e:61:c2:32:76:a8:bc:a1:3b:b8:12:
        86:b5:0d:19:ba:47:c8:11:e7:37:d7:54:c0:04:8d:7f:2d:ef:
        e8:77:fe:41:97:f7:a7:7c:dc:34:fd:d9:0c:6e:c2:bb:1b:4f:
        8a:54:93:00:75:d0:5b:22:b7:84:fa:cd:93:e1:6b:28:e6:e8:
        9e:08:8e:f1:18:2d:3a:29:02:8c:8e:af:9f:99:c3:e0:29:de:
        66:43
-----BEGIN CERTIFICATE-----
MIIEWjCCA8OgAwIBAgIBLTANBgkqhkiG9w0BAQsFADCBoDELMAkGA1UEBhMCVVMx
CzAJBgNVBAgTAk5DMRAwDgYDVQQHEwdSYWxlaWdoMRcwFQYDVQQKEw5GZWRvcmEg
UHJvamVjdDEPMA0GA1UECxMGZmVkbXNnMQ8wDQYDVQQDEwZmZWRtc2cxDzANBgNV
BCkTBmZlZG1zZzEmMCQGCSqGSIb3DQEJARYXYWRtaW5AZmVkb3JhcHJvamVjdC5v
cmcwHhcNMjMwMjIwMTE0MzEzWhcNMzMwMjE3MTE0MzEzWjCB3jELMAkGA1UEBhMC
VVMxCzAJBgNVBAgTAk5DMRAwDgYDVQQHEwdSYWxlaWdoMRcwFQYDVQQKEw5GZWRv
cmEgUHJvamVjdDEPMA0GA1UECxMGZmVkbXNnMS4wLAYDVQQDEyVzY20tcGtnczAx
LnN0Zy5waHgyLmZlZG9yYXByb2plY3Qub3JnMS4wLAYDVQQpEyVzY20tcGtnczAx
LnN0Zy5waHgyLmZlZG9yYXByb2plY3Qub3JnMSYwJAYJKoZIhvcNAQkBFhdhZG1p
bkBmZWRvcmFwcm9qZWN0Lm9yZzCBnzANBgkqhkiG9w0BAQEFAAOBjQAwgYkCgYEA
4ulGJmEUVmixx5DTA0Ocu6N2SlX2vEqJseLEGAl+UYDaGrClOY/LauY5DQIux1cQ
mQCwwAAxtRavweVWI3pyr2cnNIsps7q2TB6e0AtV1Td+FzbUb9qTJ2zQIbTHt0Xj
2rnM6Haz2iPRZiTdZEUDCUY0B9g7SWv5dBejbKiurgsCAwEAAaOCAWIwggFeMAkG
A1UdEwQCMAAwLQYJYIZIAYb4QgENBCAWHkVhc3ktUlNBIEdlbmVyYXRlZCBDZXJ0
aWZpY2F0ZTAdBgNVHQ4EFgQUbZiTvonWmNjrrFo5u7xrNBPxurYwgeAGA1UdIwSB
2DCB1YAUhTsLtYYiMt29+OF8icMgrcpEtTihgaakgaMwgaAxCzAJBgNVBAYTAlVT
MQswCQYDVQQIEwJOQzEQMA4GA1UEBxMHUmFsZWlnaDEXMBUGA1UEChMORmVkb3Jh
IFByb2plY3QxDzANBgNVBAsTBmZlZG1zZzEPMA0GA1UEAxMGZmVkbXNnMQ8wDQYD
VQQpEwZmZWRtc2cxJjAkBgkqhkiG9w0BCQEWF2FkbWluQGZlZG9yYXByb2plY3Qu
b3JnghQxGF+aXL7GZB79ILM3srIW++DA9jATBgNVHSUEDDAKBggrBgEFBQcDAjAL
BgNVHQ8EBAMCB4AwDQYJKoZIhvcNAQELBQADgYEArHaS8Op+xmRscpbfG1ca8qaL
veD42wSrpigKBeBINvkis9faVYA2lTk9zi5hwjJ2qLyhO7gShrUNGbpHyBHnN9dU
wASNfy3v6Hf+QZf3p3zcNP3ZDG7CuxtPilSTAHXQWyK3hPrNk+FrKObongiO8Rgt
OikCjI6vn5nD4CneZkM=
-----END CERTIFICATE-----
