Certificate:
    Data:
        Version: 3 (0x2)
        Serial Number: 45 (0x2d)
        Signature Algorithm: sha1WithRSAEncryption
        Issuer: C=US, ST=NC, L=Raleigh, O=Fedora Project, OU=fedmsg, CN=fedmsg/name=fedmsg/emailAddress=admin@fedoraproject.org
        Validity
            Not Before: Jul 15 21:18:54 2012 GMT
            Not After : Jul 13 21:18:54 2022 GMT
        Subject: C=US, ST=NC, L=Raleigh, O=Fedora Project, OU=fedmsg, CN=scm-pkgs01.stg.phx2.fedoraproject.org/name=scm-pkgs01.stg.phx2.fedoraproject.org/emailAddress=admin@fedoraproject.org
        Subject Public Key Info:
            Public Key Algorithm: rsaEncryption
                Public-Key: (1024 bit)
                Modulus:
                    00:d0:8d:ba:8e:c2:2c:65:b6:80:f2:b9:48:b8:b9:
                    a6:77:61:76:d4:bf:88:4b:6b:a3:a6:71:c1:fe:c7:
                    46:00:49:e7:1a:aa:65:10:86:2f:a0:42:82:22:4e:
                    85:28:b0:fe:fa:94:9d:28:b4:4b:16:80:54:5b:dd:
                    de:c4:77:0c:eb:8e:ea:91:90:bd:22:ff:e7:e2:23:
                    f4:3d:bd:04:de:3d:11:0e:9b:0c:e4:51:b1:d9:fc:
                    23:1c:ee:1f:0c:59:13:a0:24:0a:2a:c4:a2:80:a5:
                    03:e4:8c:a6:7a:82:56:4e:24:b1:b0:d1:9e:15:c6:
                    98:41:0d:4d:6f:f9:91:26:01
                Exponent: 65537 (0x10001)
        X509v3 extensions:
            X509v3 Basic Constraints: 
                CA:FALSE
            Netscape Comment: 
                Easy-RSA Generated Certificate
            X509v3 Subject Key Identifier: 
                A8:F3:3D:35:FB:85:39:3F:80:8C:DB:E0:F0:71:99:17:AA:E3:BD:1C
            X509v3 Authority Key Identifier: 
                keyid:00:98:A5:D5:E7:C4:55:0E:84:A3:67:FE:66:4A:16:E0:04:15:DD:21
                DirName:/C=US/ST=NC/L=Raleigh/O=Fedora Project/OU=fedmsg/CN=fedmsg/name=fedmsg/emailAddress=admin@fedoraproject.org
                serial:8E:EB:28:D8:A9:13:9D:7C

            X509v3 Extended Key Usage: 
                TLS Web Client Authentication
            X509v3 Key Usage: 
                Digital Signature
    Signature Algorithm: sha1WithRSAEncryption
        92:1a:dc:04:eb:bb:cc:22:eb:a0:70:03:d8:71:84:a0:7f:2b:
        e2:85:2a:2a:ff:51:6e:3c:02:b9:e5:4e:79:b2:40:55:c8:f0:
        00:32:01:59:04:ad:ec:d8:0f:a5:56:73:11:86:19:4e:37:ad:
        11:3c:43:36:0b:1b:ad:b4:51:6d:49:e8:51:40:6b:a9:2e:b9:
        b9:c3:98:c5:99:bf:7a:e5:fd:8b:6f:9e:76:d4:82:40:10:e5:
        79:08:67:f3:d2:df:3f:e3:9c:8a:c5:f5:7d:43:0c:26:7c:a8:
        d4:fe:bc:d9:50:84:5c:91:71:d2:af:c7:18:f7:a2:b4:9b:61:
        81:2a
-----BEGIN CERTIFICATE-----
MIIETzCCA7igAwIBAgIBLTANBgkqhkiG9w0BAQUFADCBoDELMAkGA1UEBhMCVVMx
CzAJBgNVBAgTAk5DMRAwDgYDVQQHEwdSYWxlaWdoMRcwFQYDVQQKEw5GZWRvcmEg
UHJvamVjdDEPMA0GA1UECxMGZmVkbXNnMQ8wDQYDVQQDEwZmZWRtc2cxDzANBgNV
BCkTBmZlZG1zZzEmMCQGCSqGSIb3DQEJARYXYWRtaW5AZmVkb3JhcHJvamVjdC5v
cmcwHhcNMTIwNzE1MjExODU0WhcNMjIwNzEzMjExODU0WjCB3jELMAkGA1UEBhMC
VVMxCzAJBgNVBAgTAk5DMRAwDgYDVQQHEwdSYWxlaWdoMRcwFQYDVQQKEw5GZWRv
cmEgUHJvamVjdDEPMA0GA1UECxMGZmVkbXNnMS4wLAYDVQQDEyVzY20tcGtnczAx
LnN0Zy5waHgyLmZlZG9yYXByb2plY3Qub3JnMS4wLAYDVQQpEyVzY20tcGtnczAx
LnN0Zy5waHgyLmZlZG9yYXByb2plY3Qub3JnMSYwJAYJKoZIhvcNAQkBFhdhZG1p
bkBmZWRvcmFwcm9qZWN0Lm9yZzCBnzANBgkqhkiG9w0BAQEFAAOBjQAwgYkCgYEA
0I26jsIsZbaA8rlIuLmmd2F21L+IS2ujpnHB/sdGAEnnGqplEIYvoEKCIk6FKLD+
+pSdKLRLFoBUW93exHcM647qkZC9Iv/n4iP0Pb0E3j0RDpsM5FGx2fwjHO4fDFkT
oCQKKsSigKUD5IymeoJWTiSxsNGeFcaYQQ1Nb/mRJgECAwEAAaOCAVcwggFTMAkG
A1UdEwQCMAAwLQYJYIZIAYb4QgENBCAWHkVhc3ktUlNBIEdlbmVyYXRlZCBDZXJ0
aWZpY2F0ZTAdBgNVHQ4EFgQUqPM9NfuFOT+AjNvg8HGZF6rjvRwwgdUGA1UdIwSB
zTCByoAUAJil1efEVQ6Eo2f+ZkoW4AQV3SGhgaakgaMwgaAxCzAJBgNVBAYTAlVT
MQswCQYDVQQIEwJOQzEQMA4GA1UEBxMHUmFsZWlnaDEXMBUGA1UEChMORmVkb3Jh
IFByb2plY3QxDzANBgNVBAsTBmZlZG1zZzEPMA0GA1UEAxMGZmVkbXNnMQ8wDQYD
VQQpEwZmZWRtc2cxJjAkBgkqhkiG9w0BCQEWF2FkbWluQGZlZG9yYXByb2plY3Qu
b3JnggkAjuso2KkTnXwwEwYDVR0lBAwwCgYIKwYBBQUHAwIwCwYDVR0PBAQDAgeA
MA0GCSqGSIb3DQEBBQUAA4GBAJIa3ATru8wi66BwA9hxhKB/K+KFKir/UW48Arnl
TnmyQFXI8AAyAVkErezYD6VWcxGGGU43rRE8QzYLG620UW1J6FFAa6kuubnDmMWZ
v3rl/YtvnnbUgkAQ5XkIZ/PS3z/jnIrF9X1DDCZ8qNT+vNlQhFyRcdKvxxj3orSb
YYEq
-----END CERTIFICATE-----
