Certificate:
    Data:
        Version: 3 (0x2)
        Serial Number: 22 (0x16)
        Signature Algorithm: sha1WithRSAEncryption
        Issuer: C=US, ST=NC, L=Raleigh, O=Fedora Project, OU=fedmsg, CN=fedmsg/name=fedmsg/emailAddress=admin@fedoraproject.org
        Validity
            Not Before: Jul 15 21:18:53 2012 GMT
            Not After : Jul 13 21:18:53 2022 GMT
        Subject: C=US, ST=NC, L=Raleigh, O=Fedora Project, OU=fedmsg, CN=bodhi-app03.phx2.fedoraproject.org/name=bodhi-app03.phx2.fedoraproject.org/emailAddress=admin@fedoraproject.org
        Subject Public Key Info:
            Public Key Algorithm: rsaEncryption
                Public-Key: (1024 bit)
                Modulus:
                    00:d5:e6:d7:7e:b7:28:5a:b7:95:b9:9f:b8:a2:70:
                    67:03:18:41:ed:2d:eb:0c:63:1d:d2:13:3f:26:7b:
                    25:b8:44:20:4c:57:0f:8f:c6:9e:ca:ac:fa:8f:e3:
                    98:ec:74:2a:42:51:73:88:e3:47:6e:b2:4a:e0:64:
                    a0:69:06:b9:3c:d3:c5:7a:bb:14:c1:42:3d:93:68:
                    55:84:b4:55:c1:fb:dd:e9:60:22:08:39:30:1d:14:
                    07:01:30:25:71:80:ab:85:9b:88:0a:86:0f:09:01:
                    0e:54:b4:09:90:47:44:8b:ef:2d:ca:58:65:f7:eb:
                    62:0f:ac:29:37:67:e1:5f:17
                Exponent: 65537 (0x10001)
        X509v3 extensions:
            X509v3 Basic Constraints: 
                CA:FALSE
            Netscape Comment: 
                Easy-RSA Generated Certificate
            X509v3 Subject Key Identifier: 
                A1:41:27:47:9A:DA:D7:92:A1:10:AB:68:5B:5B:90:9F:6A:8C:8A:D1
            X509v3 Authority Key Identifier: 
                keyid:00:98:A5:D5:E7:C4:55:0E:84:A3:67:FE:66:4A:16:E0:04:15:DD:21
                DirName:/C=US/ST=NC/L=Raleigh/O=Fedora Project/OU=fedmsg/CN=fedmsg/name=fedmsg/emailAddress=admin@fedoraproject.org
                serial:8E:EB:28:D8:A9:13:9D:7C

            X509v3 Extended Key Usage: 
                TLS Web Client Authentication
            X509v3 Key Usage: 
                Digital Signature
    Signature Algorithm: sha1WithRSAEncryption
        61:80:ed:85:75:7a:87:8e:62:f8:37:8c:68:58:1f:bb:02:67:
        de:bc:b5:1b:fe:88:b6:18:12:97:eb:17:91:10:10:83:07:4b:
        6d:52:87:dd:6f:64:dd:a9:c0:49:15:35:e9:e5:d4:6d:be:2b:
        f5:3b:4a:a4:e0:af:16:04:e7:2a:fe:66:e5:81:1a:95:3e:76:
        24:8e:35:6d:73:a3:6c:b7:c0:74:dd:04:02:53:81:cc:94:c3:
        03:0a:c7:ad:eb:d0:97:91:ab:08:83:85:7f:d3:ee:f1:d5:19:
        4b:f1:14:2f:56:d4:f5:5d:96:33:87:19:ab:7b:09:f1:1b:33:
        c0:58
-----BEGIN CERTIFICATE-----
MIIESTCCA7KgAwIBAgIBFjANBgkqhkiG9w0BAQUFADCBoDELMAkGA1UEBhMCVVMx
CzAJBgNVBAgTAk5DMRAwDgYDVQQHEwdSYWxlaWdoMRcwFQYDVQQKEw5GZWRvcmEg
UHJvamVjdDEPMA0GA1UECxMGZmVkbXNnMQ8wDQYDVQQDEwZmZWRtc2cxDzANBgNV
BCkTBmZlZG1zZzEmMCQGCSqGSIb3DQEJARYXYWRtaW5AZmVkb3JhcHJvamVjdC5v
cmcwHhcNMTIwNzE1MjExODUzWhcNMjIwNzEzMjExODUzWjCB2DELMAkGA1UEBhMC
VVMxCzAJBgNVBAgTAk5DMRAwDgYDVQQHEwdSYWxlaWdoMRcwFQYDVQQKEw5GZWRv
cmEgUHJvamVjdDEPMA0GA1UECxMGZmVkbXNnMSswKQYDVQQDEyJib2RoaS1hcHAw
My5waHgyLmZlZG9yYXByb2plY3Qub3JnMSswKQYDVQQpEyJib2RoaS1hcHAwMy5w
aHgyLmZlZG9yYXByb2plY3Qub3JnMSYwJAYJKoZIhvcNAQkBFhdhZG1pbkBmZWRv
cmFwcm9qZWN0Lm9yZzCBnzANBgkqhkiG9w0BAQEFAAOBjQAwgYkCgYEA1ebXfrco
WreVuZ+4onBnAxhB7S3rDGMd0hM/JnsluEQgTFcPj8aeyqz6j+OY7HQqQlFziONH
brJK4GSgaQa5PNPFersUwUI9k2hVhLRVwfvd6WAiCDkwHRQHATAlcYCrhZuICoYP
CQEOVLQJkEdEi+8tylhl9+tiD6wpN2fhXxcCAwEAAaOCAVcwggFTMAkGA1UdEwQC
MAAwLQYJYIZIAYb4QgENBCAWHkVhc3ktUlNBIEdlbmVyYXRlZCBDZXJ0aWZpY2F0
ZTAdBgNVHQ4EFgQUoUEnR5ra15KhEKtoW1uQn2qMitEwgdUGA1UdIwSBzTCByoAU
AJil1efEVQ6Eo2f+ZkoW4AQV3SGhgaakgaMwgaAxCzAJBgNVBAYTAlVTMQswCQYD
VQQIEwJOQzEQMA4GA1UEBxMHUmFsZWlnaDEXMBUGA1UEChMORmVkb3JhIFByb2pl
Y3QxDzANBgNVBAsTBmZlZG1zZzEPMA0GA1UEAxMGZmVkbXNnMQ8wDQYDVQQpEwZm
ZWRtc2cxJjAkBgkqhkiG9w0BCQEWF2FkbWluQGZlZG9yYXByb2plY3Qub3JnggkA
juso2KkTnXwwEwYDVR0lBAwwCgYIKwYBBQUHAwIwCwYDVR0PBAQDAgeAMA0GCSqG
SIb3DQEBBQUAA4GBAGGA7YV1eoeOYvg3jGhYH7sCZ968tRv+iLYYEpfrF5EQEIMH
S21Sh91vZN2pwEkVNenl1G2+K/U7SqTgrxYE5yr+ZuWBGpU+diSONW1zo2y3wHTd
BAJTgcyUwwMKx63r0JeRqwiDhX/T7vHVGUvxFC9W1PVdljOHGat7CfEbM8BY
-----END CERTIFICATE-----
