Certificate:
    Data:
        Version: 3 (0x2)
        Serial Number: 26 (0x1a)
        Signature Algorithm: sha1WithRSAEncryption
        Issuer: C=US, ST=NC, L=Raleigh, O=Fedora Project, OU=fedmsg, CN=fedmsg/name=fedmsg/emailAddress=admin@fedoraproject.org
        Validity
            Not Before: Jul 15 21:18:53 2012 GMT
            Not After : Jul 13 21:18:53 2022 GMT
        Subject: C=US, ST=NC, L=Raleigh, O=Fedora Project, OU=fedmsg, CN=bodhi-app07.phx2.fedoraproject.org/name=bodhi-app07.phx2.fedoraproject.org/emailAddress=admin@fedoraproject.org
        Subject Public Key Info:
            Public Key Algorithm: rsaEncryption
                Public-Key: (1024 bit)
                Modulus:
                    00:b1:c9:1d:24:dd:fd:81:5d:ce:fb:30:d0:4f:d3:
                    4e:5a:5d:f7:1d:a6:db:9d:af:4e:e7:89:cb:83:dd:
                    22:c3:6b:4c:c6:2e:36:7e:8a:3e:50:e1:93:cc:c9:
                    b2:fb:97:9d:82:b4:f7:45:d5:52:cc:fb:62:b6:b2:
                    a3:bf:03:11:15:a9:76:44:d9:89:68:6b:d8:f9:bc:
                    52:54:81:47:9b:2b:d3:62:af:be:bd:16:da:09:a8:
                    30:0d:15:c6:fc:83:b9:c5:97:91:f9:c6:2a:93:02:
                    2c:d5:70:9d:83:20:07:d9:34:0e:de:dc:07:44:cd:
                    b4:84:d3:cc:28:70:f2:88:8b
                Exponent: 65537 (0x10001)
        X509v3 extensions:
            X509v3 Basic Constraints: 
                CA:FALSE
            Netscape Comment: 
                Easy-RSA Generated Certificate
            X509v3 Subject Key Identifier: 
                A1:DB:45:9B:BC:F2:0E:99:B9:E9:C9:67:95:B1:94:7A:F1:6A:C7:9A
            X509v3 Authority Key Identifier: 
                keyid:00:98:A5:D5:E7:C4:55:0E:84:A3:67:FE:66:4A:16:E0:04:15:DD:21
                DirName:/C=US/ST=NC/L=Raleigh/O=Fedora Project/OU=fedmsg/CN=fedmsg/name=fedmsg/emailAddress=admin@fedoraproject.org
                serial:8E:EB:28:D8:A9:13:9D:7C

            X509v3 Extended Key Usage: 
                TLS Web Client Authentication
            X509v3 Key Usage: 
                Digital Signature
    Signature Algorithm: sha1WithRSAEncryption
        59:c6:61:f6:ed:4c:81:e6:fc:da:e7:4b:42:f2:db:4a:a1:77:
        b4:31:ef:bf:93:e6:72:b7:6e:48:86:e9:98:36:ff:03:ad:4d:
        c8:51:db:39:66:86:66:dc:fe:63:86:66:86:d4:07:e5:49:4f:
        15:f1:32:17:81:cd:15:b9:b7:66:f3:be:33:2a:28:a3:3a:94:
        82:db:53:1b:f3:da:52:3b:84:35:06:a7:f4:f8:26:ff:9a:90:
        9f:1d:b5:7c:79:82:09:76:53:82:a1:84:f2:33:72:05:89:46:
        df:75:b0:ba:ed:bc:2a:c5:a0:6b:29:80:df:24:1c:08:78:bd:
        4e:bf
-----BEGIN CERTIFICATE-----
MIIESTCCA7KgAwIBAgIBGjANBgkqhkiG9w0BAQUFADCBoDELMAkGA1UEBhMCVVMx
CzAJBgNVBAgTAk5DMRAwDgYDVQQHEwdSYWxlaWdoMRcwFQYDVQQKEw5GZWRvcmEg
UHJvamVjdDEPMA0GA1UECxMGZmVkbXNnMQ8wDQYDVQQDEwZmZWRtc2cxDzANBgNV
BCkTBmZlZG1zZzEmMCQGCSqGSIb3DQEJARYXYWRtaW5AZmVkb3JhcHJvamVjdC5v
cmcwHhcNMTIwNzE1MjExODUzWhcNMjIwNzEzMjExODUzWjCB2DELMAkGA1UEBhMC
VVMxCzAJBgNVBAgTAk5DMRAwDgYDVQQHEwdSYWxlaWdoMRcwFQYDVQQKEw5GZWRv
cmEgUHJvamVjdDEPMA0GA1UECxMGZmVkbXNnMSswKQYDVQQDEyJib2RoaS1hcHAw
Ny5waHgyLmZlZG9yYXByb2plY3Qub3JnMSswKQYDVQQpEyJib2RoaS1hcHAwNy5w
aHgyLmZlZG9yYXByb2plY3Qub3JnMSYwJAYJKoZIhvcNAQkBFhdhZG1pbkBmZWRv
cmFwcm9qZWN0Lm9yZzCBnzANBgkqhkiG9w0BAQEFAAOBjQAwgYkCgYEAsckdJN39
gV3O+zDQT9NOWl33Habbna9O54nLg90iw2tMxi42foo+UOGTzMmy+5edgrT3RdVS
zPtitrKjvwMRFal2RNmJaGvY+bxSVIFHmyvTYq++vRbaCagwDRXG/IO5xZeR+cYq
kwIs1XCdgyAH2TQO3twHRM20hNPMKHDyiIsCAwEAAaOCAVcwggFTMAkGA1UdEwQC
MAAwLQYJYIZIAYb4QgENBCAWHkVhc3ktUlNBIEdlbmVyYXRlZCBDZXJ0aWZpY2F0
ZTAdBgNVHQ4EFgQUodtFm7zyDpm56clnlbGUevFqx5owgdUGA1UdIwSBzTCByoAU
AJil1efEVQ6Eo2f+ZkoW4AQV3SGhgaakgaMwgaAxCzAJBgNVBAYTAlVTMQswCQYD
VQQIEwJOQzEQMA4GA1UEBxMHUmFsZWlnaDEXMBUGA1UEChMORmVkb3JhIFByb2pl
Y3QxDzANBgNVBAsTBmZlZG1zZzEPMA0GA1UEAxMGZmVkbXNnMQ8wDQYDVQQpEwZm
ZWRtc2cxJjAkBgkqhkiG9w0BCQEWF2FkbWluQGZlZG9yYXByb2plY3Qub3JnggkA
juso2KkTnXwwEwYDVR0lBAwwCgYIKwYBBQUHAwIwCwYDVR0PBAQDAgeAMA0GCSqG
SIb3DQEBBQUAA4GBAFnGYfbtTIHm/NrnS0Ly20qhd7Qx77+T5nK3bkiG6Zg2/wOt
TchR2zlmhmbc/mOGZobUB+VJTxXxMheBzRW5t2bzvjMqKKM6lILbUxvz2lI7hDUG
p/T4Jv+akJ8dtXx5ggl2U4KhhPIzcgWJRt91sLrtvCrFoGspgN8kHAh4vU6/
-----END CERTIFICATE-----
