Certificate:
    Data:
        Version: 3 (0x2)
        Serial Number: 23 (0x17)
        Signature Algorithm: sha256WithRSAEncryption
        Issuer: C=US, ST=NC, L=Raleigh, O=Fedora Project, OU=fedmsg, CN=fedmsg/name=fedmsg/emailAddress=admin@fedoraproject.org
        Validity
            Not Before: Feb 20 11:43:13 2023 GMT
            Not After : Feb 17 11:43:13 2033 GMT
        Subject: C=US, ST=NC, L=Raleigh, O=Fedora Project, OU=fedmsg, CN=bodhi-app04.phx2.fedoraproject.org/name=bodhi-app04.phx2.fedoraproject.org/emailAddress=admin@fedoraproject.org
        Subject Public Key Info:
            Public Key Algorithm: rsaEncryption
                Public-Key: (1024 bit)
                Modulus:
                    00:dd:e1:f6:79:95:b2:33:e8:d4:a9:3b:e1:28:d8:
                    d5:3a:df:19:80:7d:af:a6:2b:db:6b:56:99:3b:4b:
                    e1:1e:c3:59:11:05:cc:67:e3:51:d3:62:4f:50:ea:
                    de:2b:e5:3e:0c:0a:ad:88:74:ce:61:50:4a:ec:1a:
                    75:6d:89:fe:17:94:86:82:4b:fa:49:49:fc:e4:f8:
                    9e:62:c8:ab:a0:13:63:43:b7:3f:02:0d:d9:da:1f:
                    5a:cb:14:68:2c:35:84:51:f7:04:83:54:35:21:61:
                    f4:44:7b:da:3d:ff:8f:56:2b:75:81:13:4b:af:9d:
                    26:a2:17:96:64:5f:28:f3:2d
                Exponent: 65537 (0x10001)
        X509v3 extensions:
            X509v3 Basic Constraints: 
                CA:FALSE
            Netscape Comment: 
                Easy-RSA Generated Certificate
            X509v3 Subject Key Identifier: 
                CD:39:4B:F9:2C:58:C7:F3:B4:8A:CE:FB:C0:19:0C:A6:40:46:B3:5B
            X509v3 Authority Key Identifier: 
                keyid:85:3B:0B:B5:86:22:32:DD:BD:F8:E1:7C:89:C3:20:AD:CA:44:B5:38
                DirName:/C=US/ST=NC/L=Raleigh/O=Fedora Project/OU=fedmsg/CN=fedmsg/name=fedmsg/emailAddress=admin@fedoraproject.org
                serial:31:18:5F:9A:5C:BE:C6:64:1E:FD:20:B3:37:B2:B2:16:FB:E0:C0:F6
            X509v3 Extended Key Usage: 
                TLS Web Client Authentication
            X509v3 Key Usage: 
                Digital Signature
    Signature Algorithm: sha256WithRSAEncryption
    Signature Value:
        3a:4e:9c:39:b4:9e:a6:ef:e7:f6:03:90:69:7d:67:42:a6:94:
        56:28:8b:5c:a5:07:d8:26:86:db:6d:ab:69:0f:2d:ee:dd:f4:
        ed:8e:ca:f7:8c:cc:a0:86:e4:a6:6d:4c:d8:64:d3:f1:16:e1:
        10:6e:7a:ac:2f:89:82:b4:fc:fd:3a:33:23:bc:29:20:6c:81:
        22:55:d8:4e:07:45:f2:2d:49:72:83:18:b3:7e:ca:59:d8:10:
        6d:f7:f8:d7:c8:60:b1:df:44:45:e5:01:49:fb:c0:b9:44:a7:
        50:dc:69:f2:aa:d0:66:ed:f2:d5:94:9d:9d:b3:2f:05:16:7b:
        a9:31
-----BEGIN CERTIFICATE-----
MIIEVDCCA72gAwIBAgIBFzANBgkqhkiG9w0BAQsFADCBoDELMAkGA1UEBhMCVVMx
CzAJBgNVBAgTAk5DMRAwDgYDVQQHEwdSYWxlaWdoMRcwFQYDVQQKEw5GZWRvcmEg
UHJvamVjdDEPMA0GA1UECxMGZmVkbXNnMQ8wDQYDVQQDEwZmZWRtc2cxDzANBgNV
BCkTBmZlZG1zZzEmMCQGCSqGSIb3DQEJARYXYWRtaW5AZmVkb3JhcHJvamVjdC5v
cmcwHhcNMjMwMjIwMTE0MzEzWhcNMzMwMjE3MTE0MzEzWjCB2DELMAkGA1UEBhMC
VVMxCzAJBgNVBAgTAk5DMRAwDgYDVQQHEwdSYWxlaWdoMRcwFQYDVQQKEw5GZWRv
cmEgUHJvamVjdDEPMA0GA1UECxMGZmVkbXNnMSswKQYDVQQDEyJib2RoaS1hcHAw
NC5waHgyLmZlZG9yYXByb2plY3Qub3JnMSswKQYDVQQpEyJib2RoaS1hcHAwNC5w
aHgyLmZlZG9yYXByb2plY3Qub3JnMSYwJAYJKoZIhvcNAQkBFhdhZG1pbkBmZWRv
cmFwcm9qZWN0Lm9yZzCBnzANBgkqhkiG9w0BAQEFAAOBjQAwgYkCgYEA3eH2eZWy
M+jUqTvhKNjVOt8ZgH2vpivba1aZO0vhHsNZEQXMZ+NR02JPUOreK+U+DAqtiHTO
YVBK7Bp1bYn+F5SGgkv6SUn85PieYsiroBNjQ7c/Ag3Z2h9ayxRoLDWEUfcEg1Q1
IWH0RHvaPf+PVit1gRNLr50moheWZF8o8y0CAwEAAaOCAWIwggFeMAkGA1UdEwQC
MAAwLQYJYIZIAYb4QgENBCAWHkVhc3ktUlNBIEdlbmVyYXRlZCBDZXJ0aWZpY2F0
ZTAdBgNVHQ4EFgQUzTlL+SxYx/O0is77wBkMpkBGs1swgeAGA1UdIwSB2DCB1YAU
hTsLtYYiMt29+OF8icMgrcpEtTihgaakgaMwgaAxCzAJBgNVBAYTAlVTMQswCQYD
VQQIEwJOQzEQMA4GA1UEBxMHUmFsZWlnaDEXMBUGA1UEChMORmVkb3JhIFByb2pl
Y3QxDzANBgNVBAsTBmZlZG1zZzEPMA0GA1UEAxMGZmVkbXNnMQ8wDQYDVQQpEwZm
ZWRtc2cxJjAkBgkqhkiG9w0BCQEWF2FkbWluQGZlZG9yYXByb2plY3Qub3JnghQx
GF+aXL7GZB79ILM3srIW++DA9jATBgNVHSUEDDAKBggrBgEFBQcDAjALBgNVHQ8E
BAMCB4AwDQYJKoZIhvcNAQELBQADgYEAOk6cObSepu/n9gOQaX1nQqaUViiLXKUH
2CaG222raQ8t7t307Y7K94zMoIbkpm1M2GTT8RbhEG56rC+JgrT8/TozI7wpIGyB
IlXYTgdF8i1JcoMYs37KWdgQbff418hgsd9EReUBSfvAuUSnUNxp8qrQZu3y1ZSd
nbMvBRZ7qTE=
-----END CERTIFICATE-----
