Certificate:
    Data:
        Version: 3 (0x2)
        Serial Number: 21 (0x15)
        Signature Algorithm: sha256WithRSAEncryption
        Issuer: C=US, ST=NC, L=Raleigh, O=Fedora Project, OU=fedmsg, CN=fedmsg/name=fedmsg/emailAddress=admin@fedoraproject.org
        Validity
            Not Before: Feb 20 11:43:12 2023 GMT
            Not After : Feb 17 11:43:12 2033 GMT
        Subject: C=US, ST=NC, L=Raleigh, O=Fedora Project, OU=fedmsg, CN=bodhi-app02.phx2.fedoraproject.org/name=bodhi-app02.phx2.fedoraproject.org/emailAddress=admin@fedoraproject.org
        Subject Public Key Info:
            Public Key Algorithm: rsaEncryption
                Public-Key: (1024 bit)
                Modulus:
                    00:a8:52:80:53:3f:29:42:f7:22:e8:fb:4c:d7:fd:
                    22:3f:1d:58:75:32:bd:f5:4a:13:50:e3:47:78:d7:
                    a8:d8:99:00:e3:a4:da:bb:08:58:ec:4a:88:70:e2:
                    9d:15:ef:00:0b:aa:bb:0b:b9:7e:b5:92:c6:a6:b1:
                    b1:32:86:dd:39:d1:f7:74:55:7a:1b:3f:2b:26:a7:
                    58:16:8f:a0:0a:92:0f:54:00:c8:4a:c7:39:3d:b2:
                    f2:d3:3c:53:1d:b1:2f:18:d8:bb:d4:85:b1:68:eb:
                    2f:55:4e:07:a8:57:55:ed:ca:73:2e:b1:a2:6d:be:
                    7f:bc:34:77:68:1a:81:39:7f
                Exponent: 65537 (0x10001)
        X509v3 extensions:
            X509v3 Basic Constraints: 
                CA:FALSE
            Netscape Comment: 
                Easy-RSA Generated Certificate
            X509v3 Subject Key Identifier: 
                57:EC:CD:19:E3:8C:D6:CD:90:5D:A3:D3:92:EE:90:EA:65:54:DF:E4
            X509v3 Authority Key Identifier: 
                keyid:85:3B:0B:B5:86:22:32:DD:BD:F8:E1:7C:89:C3:20:AD:CA:44:B5:38
                DirName:/C=US/ST=NC/L=Raleigh/O=Fedora Project/OU=fedmsg/CN=fedmsg/name=fedmsg/emailAddress=admin@fedoraproject.org
                serial:31:18:5F:9A:5C:BE:C6:64:1E:FD:20:B3:37:B2:B2:16:FB:E0:C0:F6
            X509v3 Extended Key Usage: 
                TLS Web Client Authentication
            X509v3 Key Usage: 
                Digital Signature
    Signature Algorithm: sha256WithRSAEncryption
    Signature Value:
        17:57:76:a5:dd:72:af:d0:da:ab:9c:5c:5f:5a:3c:42:40:7e:
        db:0d:75:c8:ca:d2:5c:85:6a:90:55:d2:a5:8f:26:da:0a:67:
        5a:ce:90:5b:03:7c:e3:69:98:81:de:16:e7:68:e4:5c:5b:e2:
        7d:ab:8f:b3:1b:a5:d6:f1:38:b1:a2:f5:02:99:27:c7:4e:50:
        d0:55:ed:1d:9d:fe:33:f4:85:26:52:84:ee:ec:ef:0d:fc:30:
        f2:e2:3f:b1:59:d0:d0:2a:64:43:38:30:01:7a:9c:cc:63:35:
        9a:23:20:cc:56:5a:3c:8a:77:75:54:d5:b1:3e:65:50:34:9a:
        3d:df
-----BEGIN CERTIFICATE-----
MIIEVDCCA72gAwIBAgIBFTANBgkqhkiG9w0BAQsFADCBoDELMAkGA1UEBhMCVVMx
CzAJBgNVBAgTAk5DMRAwDgYDVQQHEwdSYWxlaWdoMRcwFQYDVQQKEw5GZWRvcmEg
UHJvamVjdDEPMA0GA1UECxMGZmVkbXNnMQ8wDQYDVQQDEwZmZWRtc2cxDzANBgNV
BCkTBmZlZG1zZzEmMCQGCSqGSIb3DQEJARYXYWRtaW5AZmVkb3JhcHJvamVjdC5v
cmcwHhcNMjMwMjIwMTE0MzEyWhcNMzMwMjE3MTE0MzEyWjCB2DELMAkGA1UEBhMC
VVMxCzAJBgNVBAgTAk5DMRAwDgYDVQQHEwdSYWxlaWdoMRcwFQYDVQQKEw5GZWRv
cmEgUHJvamVjdDEPMA0GA1UECxMGZmVkbXNnMSswKQYDVQQDEyJib2RoaS1hcHAw
Mi5waHgyLmZlZG9yYXByb2plY3Qub3JnMSswKQYDVQQpEyJib2RoaS1hcHAwMi5w
aHgyLmZlZG9yYXByb2plY3Qub3JnMSYwJAYJKoZIhvcNAQkBFhdhZG1pbkBmZWRv
cmFwcm9qZWN0Lm9yZzCBnzANBgkqhkiG9w0BAQEFAAOBjQAwgYkCgYEAqFKAUz8p
Qvci6PtM1/0iPx1YdTK99UoTUONHeNeo2JkA46TauwhY7EqIcOKdFe8AC6q7C7l+
tZLGprGxMobdOdH3dFV6Gz8rJqdYFo+gCpIPVADISsc5PbLy0zxTHbEvGNi71IWx
aOsvVU4HqFdV7cpzLrGibb5/vDR3aBqBOX8CAwEAAaOCAWIwggFeMAkGA1UdEwQC
MAAwLQYJYIZIAYb4QgENBCAWHkVhc3ktUlNBIEdlbmVyYXRlZCBDZXJ0aWZpY2F0
ZTAdBgNVHQ4EFgQUV+zNGeOM1s2QXaPTku6Q6mVU3+QwgeAGA1UdIwSB2DCB1YAU
hTsLtYYiMt29+OF8icMgrcpEtTihgaakgaMwgaAxCzAJBgNVBAYTAlVTMQswCQYD
VQQIEwJOQzEQMA4GA1UEBxMHUmFsZWlnaDEXMBUGA1UEChMORmVkb3JhIFByb2pl
Y3QxDzANBgNVBAsTBmZlZG1zZzEPMA0GA1UEAxMGZmVkbXNnMQ8wDQYDVQQpEwZm
ZWRtc2cxJjAkBgkqhkiG9w0BCQEWF2FkbWluQGZlZG9yYXByb2plY3Qub3JnghQx
GF+aXL7GZB79ILM3srIW++DA9jATBgNVHSUEDDAKBggrBgEFBQcDAjALBgNVHQ8E
BAMCB4AwDQYJKoZIhvcNAQELBQADgYEAF1d2pd1yr9Daq5xcX1o8QkB+2w11yMrS
XIVqkFXSpY8m2gpnWs6QWwN842mYgd4W52jkXFvifauPsxul1vE4saL1Apknx05Q
0FXtHZ3+M/SFJlKE7uzvDfww8uI/sVnQ0CpkQzgwAXqczGM1miMgzFZaPIp3dVTV
sT5lUDSaPd8=
-----END CERTIFICATE-----
