Certificate:
    Data:
        Version: 3 (0x2)
        Serial Number: 24 (0x18)
        Signature Algorithm: sha256WithRSAEncryption
        Issuer: C=US, ST=NC, L=Raleigh, O=Fedora Project, OU=fedmsg, CN=fedmsg/name=fedmsg/emailAddress=admin@fedoraproject.org
        Validity
            Not Before: Feb 20 11:43:13 2023 GMT
            Not After : Feb 17 11:43:13 2033 GMT
        Subject: C=US, ST=NC, L=Raleigh, O=Fedora Project, OU=fedmsg, CN=bodhi-app05.phx2.fedoraproject.org/name=bodhi-app05.phx2.fedoraproject.org/emailAddress=admin@fedoraproject.org
        Subject Public Key Info:
            Public Key Algorithm: rsaEncryption
                Public-Key: (1024 bit)
                Modulus:
                    00:d7:74:db:04:eb:f0:1d:d3:24:74:48:bb:b4:ac:
                    3b:ab:5d:8c:43:da:97:da:9c:60:1d:f9:0c:71:01:
                    84:eb:fc:3e:cb:74:fa:c6:17:af:0b:65:4e:cc:50:
                    5a:72:39:52:d1:1e:c9:7e:8b:c7:c6:b8:eb:44:5d:
                    9a:3a:90:48:c9:cf:5f:7b:3d:9a:42:3b:a9:f7:ab:
                    cb:bb:a0:c1:52:d4:8b:91:68:b0:da:f7:98:ee:7c:
                    bd:cb:0b:6a:dc:5e:ce:5c:d0:95:94:88:76:f9:89:
                    fd:ec:12:2e:87:50:e1:5f:03:60:cf:28:42:1c:6e:
                    19:fe:5a:b1:9c:b3:eb:87:17
                Exponent: 65537 (0x10001)
        X509v3 extensions:
            X509v3 Basic Constraints: 
                CA:FALSE
            Netscape Comment: 
                Easy-RSA Generated Certificate
            X509v3 Subject Key Identifier: 
                F5:C2:55:C3:21:51:53:4F:FA:83:94:6B:90:68:02:6A:D6:AB:0B:A0
            X509v3 Authority Key Identifier: 
                keyid:85:3B:0B:B5:86:22:32:DD:BD:F8:E1:7C:89:C3:20:AD:CA:44:B5:38
                DirName:/C=US/ST=NC/L=Raleigh/O=Fedora Project/OU=fedmsg/CN=fedmsg/name=fedmsg/emailAddress=admin@fedoraproject.org
                serial:31:18:5F:9A:5C:BE:C6:64:1E:FD:20:B3:37:B2:B2:16:FB:E0:C0:F6
            X509v3 Extended Key Usage: 
                TLS Web Client Authentication
            X509v3 Key Usage: 
                Digital Signature
    Signature Algorithm: sha256WithRSAEncryption
    Signature Value:
        7c:04:20:02:6b:5e:a7:61:9b:25:3e:bf:2b:e8:fd:e6:b1:b5:
        05:c7:b1:8f:1c:3e:82:8d:d3:22:a8:07:a1:99:52:2e:1f:8d:
        31:a7:46:8c:a2:2d:37:6d:45:2b:09:64:d5:26:33:47:77:4e:
        a2:3c:91:f4:2b:9c:00:ec:5e:7b:dc:c5:6f:e9:54:a6:ea:e7:
        84:d2:99:2b:e2:c0:92:01:c8:52:35:3d:a3:5d:7f:7b:09:24:
        66:d8:b5:4d:e8:ef:8c:76:64:8e:f8:89:e0:70:cc:63:46:d1:
        66:5b:1d:0d:7f:af:c0:c7:29:37:c2:dd:20:df:4e:21:a3:75:
        08:b0
-----BEGIN CERTIFICATE-----
MIIEVDCCA72gAwIBAgIBGDANBgkqhkiG9w0BAQsFADCBoDELMAkGA1UEBhMCVVMx
CzAJBgNVBAgTAk5DMRAwDgYDVQQHEwdSYWxlaWdoMRcwFQYDVQQKEw5GZWRvcmEg
UHJvamVjdDEPMA0GA1UECxMGZmVkbXNnMQ8wDQYDVQQDEwZmZWRtc2cxDzANBgNV
BCkTBmZlZG1zZzEmMCQGCSqGSIb3DQEJARYXYWRtaW5AZmVkb3JhcHJvamVjdC5v
cmcwHhcNMjMwMjIwMTE0MzEzWhcNMzMwMjE3MTE0MzEzWjCB2DELMAkGA1UEBhMC
VVMxCzAJBgNVBAgTAk5DMRAwDgYDVQQHEwdSYWxlaWdoMRcwFQYDVQQKEw5GZWRv
cmEgUHJvamVjdDEPMA0GA1UECxMGZmVkbXNnMSswKQYDVQQDEyJib2RoaS1hcHAw
NS5waHgyLmZlZG9yYXByb2plY3Qub3JnMSswKQYDVQQpEyJib2RoaS1hcHAwNS5w
aHgyLmZlZG9yYXByb2plY3Qub3JnMSYwJAYJKoZIhvcNAQkBFhdhZG1pbkBmZWRv
cmFwcm9qZWN0Lm9yZzCBnzANBgkqhkiG9w0BAQEFAAOBjQAwgYkCgYEA13TbBOvw
HdMkdEi7tKw7q12MQ9qX2pxgHfkMcQGE6/w+y3T6xhevC2VOzFBacjlS0R7JfovH
xrjrRF2aOpBIyc9fez2aQjup96vLu6DBUtSLkWiw2veY7ny9ywtq3F7OXNCVlIh2
+Yn97BIuh1DhXwNgzyhCHG4Z/lqxnLPrhxcCAwEAAaOCAWIwggFeMAkGA1UdEwQC
MAAwLQYJYIZIAYb4QgENBCAWHkVhc3ktUlNBIEdlbmVyYXRlZCBDZXJ0aWZpY2F0
ZTAdBgNVHQ4EFgQU9cJVwyFRU0/6g5RrkGgCatarC6AwgeAGA1UdIwSB2DCB1YAU
hTsLtYYiMt29+OF8icMgrcpEtTihgaakgaMwgaAxCzAJBgNVBAYTAlVTMQswCQYD
VQQIEwJOQzEQMA4GA1UEBxMHUmFsZWlnaDEXMBUGA1UEChMORmVkb3JhIFByb2pl
Y3QxDzANBgNVBAsTBmZlZG1zZzEPMA0GA1UEAxMGZmVkbXNnMQ8wDQYDVQQpEwZm
ZWRtc2cxJjAkBgkqhkiG9w0BCQEWF2FkbWluQGZlZG9yYXByb2plY3Qub3JnghQx
GF+aXL7GZB79ILM3srIW++DA9jATBgNVHSUEDDAKBggrBgEFBQcDAjALBgNVHQ8E
BAMCB4AwDQYJKoZIhvcNAQELBQADgYEAfAQgAmtep2GbJT6/K+j95rG1Bcexjxw+
go3TIqgHoZlSLh+NMadGjKItN21FKwlk1SYzR3dOojyR9CucAOxee9zFb+lUpurn
hNKZK+LAkgHIUjU9o11/ewkkZti1TejvjHZkjviJ4HDMY0bRZlsdDX+vwMcpN8Ld
IN9OIaN1CLA=
-----END CERTIFICATE-----
