Certificate:
    Data:
        Version: 3 (0x2)
        Serial Number: 25 (0x19)
        Signature Algorithm: sha256WithRSAEncryption
        Issuer: C=US, ST=NC, L=Raleigh, O=Fedora Project, OU=fedmsg, CN=fedmsg/name=fedmsg/emailAddress=admin@fedoraproject.org
        Validity
            Not Before: Feb 20 11:43:13 2023 GMT
            Not After : Feb 17 11:43:13 2033 GMT
        Subject: C=US, ST=NC, L=Raleigh, O=Fedora Project, OU=fedmsg, CN=bodhi-app06.phx2.fedoraproject.org/name=bodhi-app06.phx2.fedoraproject.org/emailAddress=admin@fedoraproject.org
        Subject Public Key Info:
            Public Key Algorithm: rsaEncryption
                Public-Key: (1024 bit)
                Modulus:
                    00:d5:93:6f:e2:fb:fe:8b:87:0a:a7:d2:aa:0c:4f:
                    e0:18:69:4d:ad:b7:b3:b1:4c:8c:a1:41:39:2f:4c:
                    0b:88:dc:47:fe:07:52:7a:32:50:81:4f:c8:d6:49:
                    83:6e:71:d2:df:de:ab:38:d8:2f:e7:d4:38:67:7c:
                    ad:66:2e:14:7f:a7:76:e3:ac:46:92:79:73:6a:53:
                    17:57:8e:45:9b:ee:cb:e2:a2:7e:fe:4c:db:db:3e:
                    0e:7f:b4:9e:b4:54:4a:a3:d3:82:bf:d2:e7:0f:45:
                    1e:18:7b:04:4a:98:0f:c9:c6:22:8a:b0:99:0f:ef:
                    55:f7:c8:bd:9f:e6:dd:27:cd
                Exponent: 65537 (0x10001)
        X509v3 extensions:
            X509v3 Basic Constraints: 
                CA:FALSE
            Netscape Comment: 
                Easy-RSA Generated Certificate
            X509v3 Subject Key Identifier: 
                2C:1D:8A:4D:9C:A8:D6:4F:C9:3A:A6:BA:77:C6:77:5B:EE:3B:77:60
            X509v3 Authority Key Identifier: 
                keyid:85:3B:0B:B5:86:22:32:DD:BD:F8:E1:7C:89:C3:20:AD:CA:44:B5:38
                DirName:/C=US/ST=NC/L=Raleigh/O=Fedora Project/OU=fedmsg/CN=fedmsg/name=fedmsg/emailAddress=admin@fedoraproject.org
                serial:31:18:5F:9A:5C:BE:C6:64:1E:FD:20:B3:37:B2:B2:16:FB:E0:C0:F6
            X509v3 Extended Key Usage: 
                TLS Web Client Authentication
            X509v3 Key Usage: 
                Digital Signature
    Signature Algorithm: sha256WithRSAEncryption
    Signature Value:
        5a:c8:47:19:21:a8:4d:3a:e7:8f:a9:39:79:a7:a3:5a:ba:f5:
        0b:05:4a:f6:8d:6e:c5:c6:c1:29:2b:a5:06:93:28:8c:bc:4f:
        74:5e:98:07:a9:56:ca:59:7f:7a:f1:02:36:40:89:cb:10:33:
        2d:fd:e5:49:1b:4c:97:e8:b7:c0:f7:c2:4c:7b:f8:27:0d:c0:
        98:77:07:9e:9e:09:27:f7:61:81:95:3d:40:c5:08:60:e5:29:
        4d:30:3e:d5:af:71:76:60:48:a1:e8:52:e6:49:8f:5f:71:65:
        8f:90:71:57:c4:69:cc:24:a0:75:4d:ee:0a:c7:d8:43:5b:79:
        ba:43
-----BEGIN CERTIFICATE-----
MIIEVDCCA72gAwIBAgIBGTANBgkqhkiG9w0BAQsFADCBoDELMAkGA1UEBhMCVVMx
CzAJBgNVBAgTAk5DMRAwDgYDVQQHEwdSYWxlaWdoMRcwFQYDVQQKEw5GZWRvcmEg
UHJvamVjdDEPMA0GA1UECxMGZmVkbXNnMQ8wDQYDVQQDEwZmZWRtc2cxDzANBgNV
BCkTBmZlZG1zZzEmMCQGCSqGSIb3DQEJARYXYWRtaW5AZmVkb3JhcHJvamVjdC5v
cmcwHhcNMjMwMjIwMTE0MzEzWhcNMzMwMjE3MTE0MzEzWjCB2DELMAkGA1UEBhMC
VVMxCzAJBgNVBAgTAk5DMRAwDgYDVQQHEwdSYWxlaWdoMRcwFQYDVQQKEw5GZWRv
cmEgUHJvamVjdDEPMA0GA1UECxMGZmVkbXNnMSswKQYDVQQDEyJib2RoaS1hcHAw
Ni5waHgyLmZlZG9yYXByb2plY3Qub3JnMSswKQYDVQQpEyJib2RoaS1hcHAwNi5w
aHgyLmZlZG9yYXByb2plY3Qub3JnMSYwJAYJKoZIhvcNAQkBFhdhZG1pbkBmZWRv
cmFwcm9qZWN0Lm9yZzCBnzANBgkqhkiG9w0BAQEFAAOBjQAwgYkCgYEA1ZNv4vv+
i4cKp9KqDE/gGGlNrbezsUyMoUE5L0wLiNxH/gdSejJQgU/I1kmDbnHS396rONgv
59Q4Z3ytZi4Uf6d246xGknlzalMXV45Fm+7L4qJ+/kzb2z4Of7SetFRKo9OCv9Ln
D0UeGHsESpgPycYiirCZD+9V98i9n+bdJ80CAwEAAaOCAWIwggFeMAkGA1UdEwQC
MAAwLQYJYIZIAYb4QgENBCAWHkVhc3ktUlNBIEdlbmVyYXRlZCBDZXJ0aWZpY2F0
ZTAdBgNVHQ4EFgQULB2KTZyo1k/JOqa6d8Z3W+47d2AwgeAGA1UdIwSB2DCB1YAU
hTsLtYYiMt29+OF8icMgrcpEtTihgaakgaMwgaAxCzAJBgNVBAYTAlVTMQswCQYD
VQQIEwJOQzEQMA4GA1UEBxMHUmFsZWlnaDEXMBUGA1UEChMORmVkb3JhIFByb2pl
Y3QxDzANBgNVBAsTBmZlZG1zZzEPMA0GA1UEAxMGZmVkbXNnMQ8wDQYDVQQpEwZm
ZWRtc2cxJjAkBgkqhkiG9w0BCQEWF2FkbWluQGZlZG9yYXByb2plY3Qub3JnghQx
GF+aXL7GZB79ILM3srIW++DA9jATBgNVHSUEDDAKBggrBgEFBQcDAjALBgNVHQ8E
BAMCB4AwDQYJKoZIhvcNAQELBQADgYEAWshHGSGoTTrnj6k5eaejWrr1CwVK9o1u
xcbBKSulBpMojLxPdF6YB6lWyll/evECNkCJyxAzLf3lSRtMl+i3wPfCTHv4Jw3A
mHcHnp4JJ/dhgZU9QMUIYOUpTTA+1a9xdmBIoehS5kmPX3Flj5BxV8RpzCSgdU3u
CsfYQ1t5ukM=
-----END CERTIFICATE-----
