Certificate:
    Data:
        Version: 3 (0x2)
        Serial Number: 28 (0x1c)
        Signature Algorithm: sha256WithRSAEncryption
        Issuer: C=US, ST=NC, L=Raleigh, O=Fedora Project, OU=fedmsg, CN=fedmsg/name=fedmsg/emailAddress=admin@fedoraproject.org
        Validity
            Not Before: Feb 20 11:43:13 2023 GMT
            Not After : Feb 17 11:43:13 2033 GMT
        Subject: C=US, ST=NC, L=Raleigh, O=Fedora Project, OU=fedmsg, CN=bodhi-app02.stg.phx2.fedoraproject.org/name=bodhi-app02.stg.phx2.fedoraproject.org/emailAddress=admin@fedoraproject.org
        Subject Public Key Info:
            Public Key Algorithm: rsaEncryption
                Public-Key: (1024 bit)
                Modulus:
                    00:c8:27:f9:11:26:6f:3e:50:ae:2a:b3:35:16:b8:
                    92:20:9c:05:f4:2c:a1:8f:91:7c:b6:0c:f4:3f:da:
                    af:2d:d0:4f:67:49:8e:51:23:17:ae:9a:dc:34:0f:
                    0f:35:9c:21:73:de:eb:0e:1a:9a:89:05:bb:8b:31:
                    c6:82:6b:53:fd:51:4e:de:99:3e:65:b8:03:ca:94:
                    8d:b6:59:5f:00:c4:5c:79:4b:74:dd:f2:fb:83:9f:
                    88:95:71:74:9e:f9:04:35:3c:dd:0b:2d:74:ea:3c:
                    ef:87:25:30:34:5f:3d:43:fa:56:e3:61:e3:e6:98:
                    e1:9e:88:d9:bb:d6:03:6a:ad
                Exponent: 65537 (0x10001)
        X509v3 extensions:
            X509v3 Basic Constraints: 
                CA:FALSE
            Netscape Comment: 
                Easy-RSA Generated Certificate
            X509v3 Subject Key Identifier: 
                7B:FF:5D:81:6D:3D:E3:C7:67:BE:3C:22:03:BE:10:5F:16:2F:3B:E7
            X509v3 Authority Key Identifier: 
                keyid:85:3B:0B:B5:86:22:32:DD:BD:F8:E1:7C:89:C3:20:AD:CA:44:B5:38
                DirName:/C=US/ST=NC/L=Raleigh/O=Fedora Project/OU=fedmsg/CN=fedmsg/name=fedmsg/emailAddress=admin@fedoraproject.org
                serial:31:18:5F:9A:5C:BE:C6:64:1E:FD:20:B3:37:B2:B2:16:FB:E0:C0:F6
            X509v3 Extended Key Usage: 
                TLS Web Client Authentication
            X509v3 Key Usage: 
                Digital Signature
    Signature Algorithm: sha256WithRSAEncryption
    Signature Value:
        4e:f5:21:d0:dc:3d:83:9d:3a:d9:bf:f9:db:91:7b:17:d8:a5:
        99:78:d4:98:26:ce:b6:03:6b:7b:f3:52:f0:66:38:24:03:a0:
        b7:ab:9c:cd:a4:cf:b2:19:db:69:6f:a3:42:88:d4:a5:80:11:
        df:bf:52:b1:19:c3:0c:c7:b4:8f:59:66:1a:31:a9:ca:d3:69:
        2d:4e:9a:6d:00:08:8c:18:84:06:e6:1c:63:90:e1:8e:14:f1:
        f2:ad:7a:5a:7d:93:e5:99:81:50:f1:84:0a:c2:f7:24:d6:77:
        be:18:5f:34:62:2b:0a:d7:f5:de:3b:83:95:3c:fa:43:ff:68:
        69:b9
-----BEGIN CERTIFICATE-----
MIIEXDCCA8WgAwIBAgIBHDANBgkqhkiG9w0BAQsFADCBoDELMAkGA1UEBhMCVVMx
CzAJBgNVBAgTAk5DMRAwDgYDVQQHEwdSYWxlaWdoMRcwFQYDVQQKEw5GZWRvcmEg
UHJvamVjdDEPMA0GA1UECxMGZmVkbXNnMQ8wDQYDVQQDEwZmZWRtc2cxDzANBgNV
BCkTBmZlZG1zZzEmMCQGCSqGSIb3DQEJARYXYWRtaW5AZmVkb3JhcHJvamVjdC5v
cmcwHhcNMjMwMjIwMTE0MzEzWhcNMzMwMjE3MTE0MzEzWjCB4DELMAkGA1UEBhMC
VVMxCzAJBgNVBAgTAk5DMRAwDgYDVQQHEwdSYWxlaWdoMRcwFQYDVQQKEw5GZWRv
cmEgUHJvamVjdDEPMA0GA1UECxMGZmVkbXNnMS8wLQYDVQQDEyZib2RoaS1hcHAw
Mi5zdGcucGh4Mi5mZWRvcmFwcm9qZWN0Lm9yZzEvMC0GA1UEKRMmYm9kaGktYXBw
MDIuc3RnLnBoeDIuZmVkb3JhcHJvamVjdC5vcmcxJjAkBgkqhkiG9w0BCQEWF2Fk
bWluQGZlZG9yYXByb2plY3Qub3JnMIGfMA0GCSqGSIb3DQEBAQUAA4GNADCBiQKB
gQDIJ/kRJm8+UK4qszUWuJIgnAX0LKGPkXy2DPQ/2q8t0E9nSY5RIxeumtw0Dw81
nCFz3usOGpqJBbuLMcaCa1P9UU7emT5luAPKlI22WV8AxFx5S3Td8vuDn4iVcXSe
+QQ1PN0LLXTqPO+HJTA0Xz1D+lbjYePmmOGeiNm71gNqrQIDAQABo4IBYjCCAV4w
CQYDVR0TBAIwADAtBglghkgBhvhCAQ0EIBYeRWFzeS1SU0EgR2VuZXJhdGVkIENl
cnRpZmljYXRlMB0GA1UdDgQWBBR7/12BbT3jx2e+PCIDvhBfFi875zCB4AYDVR0j
BIHYMIHVgBSFOwu1hiIy3b344XyJwyCtykS1OKGBpqSBozCBoDELMAkGA1UEBhMC
VVMxCzAJBgNVBAgTAk5DMRAwDgYDVQQHEwdSYWxlaWdoMRcwFQYDVQQKEw5GZWRv
cmEgUHJvamVjdDEPMA0GA1UECxMGZmVkbXNnMQ8wDQYDVQQDEwZmZWRtc2cxDzAN
BgNVBCkTBmZlZG1zZzEmMCQGCSqGSIb3DQEJARYXYWRtaW5AZmVkb3JhcHJvamVj
dC5vcmeCFDEYX5pcvsZkHv0gszeyshb74MD2MBMGA1UdJQQMMAoGCCsGAQUFBwMC
MAsGA1UdDwQEAwIHgDANBgkqhkiG9w0BAQsFAAOBgQBO9SHQ3D2DnTrZv/nbkXsX
2KWZeNSYJs62A2t781LwZjgkA6C3q5zNpM+yGdtpb6NCiNSlgBHfv1KxGcMMx7SP
WWYaManK02ktTpptAAiMGIQG5hxjkOGOFPHyrXpafZPlmYFQ8YQKwvck1ne+GF80
YisK1/XeO4OVPPpD/2hpuQ==
-----END CERTIFICATE-----
