Certificate:
    Data:
        Version: 3 (0x2)
        Serial Number: 2 (0x2)
        Signature Algorithm: sha256WithRSAEncryption
        Issuer: C=US, ST=NC, L=Raleigh, O=Fedora Project, OU=fedmsg, CN=fedmsg/name=fedmsg/emailAddress=admin@fedoraproject.org
        Validity
            Not Before: Feb 20 11:43:12 2023 GMT
            Not After : Feb 17 11:43:12 2033 GMT
        Subject: C=US, ST=NC, L=Raleigh, O=Fedora Project, OU=fedmsg, CN=dummy-revoked/name=dummy-revoked/emailAddress=admin@fedoraproject.org
        Subject Public Key Info:
            Public Key Algorithm: rsaEncryption
                Public-Key: (1024 bit)
                Modulus:
                    00:de:c3:2e:e0:ef:38:b5:54:ff:58:65:79:8f:b8:
                    b0:d6:4b:df:9c:d8:f0:b0:7b:f3:0e:90:b5:b4:71:
                    32:c2:1b:f8:d3:94:c7:93:95:a2:90:57:d5:fd:56:
                    ab:ac:1b:fd:51:f8:fe:b3:d0:ac:78:67:fa:cf:4a:
                    a1:dc:8f:d4:59:18:7f:9c:3a:c9:34:7a:8d:92:c9:
                    4f:9d:f1:f1:1c:c1:05:3b:2f:13:40:e1:a8:0b:77:
                    59:21:4f:5c:aa:69:9a:37:2b:eb:17:2e:a2:70:13:
                    21:12:6a:5b:fc:d7:3a:84:02:99:0a:7b:02:2c:18:
                    a5:33:0d:85:92:b8:c7:06:75
                Exponent: 65537 (0x10001)
        X509v3 extensions:
            X509v3 Basic Constraints: 
                CA:FALSE
            Netscape Comment: 
                Easy-RSA Generated Certificate
            X509v3 Subject Key Identifier: 
                9B:3E:17:6D:3F:A1:28:E8:E7:00:90:20:D0:F5:45:01:2E:FC:86:77
            X509v3 Authority Key Identifier: 
                keyid:85:3B:0B:B5:86:22:32:DD:BD:F8:E1:7C:89:C3:20:AD:CA:44:B5:38
                DirName:/C=US/ST=NC/L=Raleigh/O=Fedora Project/OU=fedmsg/CN=fedmsg/name=fedmsg/emailAddress=admin@fedoraproject.org
                serial:31:18:5F:9A:5C:BE:C6:64:1E:FD:20:B3:37:B2:B2:16:FB:E0:C0:F6
            X509v3 Extended Key Usage: 
                TLS Web Client Authentication
            X509v3 Key Usage: 
                Digital Signature
    Signature Algorithm: sha256WithRSAEncryption
    Signature Value:
        2a:22:9f:e0:ce:a1:30:89:d4:85:c7:3d:d0:0f:cc:22:d2:ea:
        c7:a2:0a:53:7b:cc:e1:18:a1:9a:81:9e:bc:03:1b:a0:6a:58:
        d1:16:50:b7:97:9b:0d:1f:49:53:80:43:70:33:ab:07:de:42:
        92:33:ea:50:87:5d:02:c5:ae:b7:7c:ae:1f:81:f1:0b:70:f0:
        e2:a6:db:0c:33:a0:08:bd:78:c6:2e:ba:ee:17:31:6a:a6:c0:
        7c:14:0d:32:d9:2b:9b:d3:05:ad:a4:6b:d3:d6:b7:ac:3f:ca:
        38:14:94:c4:80:d4:5d:d6:df:ad:7b:ec:e3:4d:39:b8:30:86:
        f8:31
-----BEGIN CERTIFICATE-----
MIIEKjCCA5OgAwIBAgIBAjANBgkqhkiG9w0BAQsFADCBoDELMAkGA1UEBhMCVVMx
CzAJBgNVBAgTAk5DMRAwDgYDVQQHEwdSYWxlaWdoMRcwFQYDVQQKEw5GZWRvcmEg
UHJvamVjdDEPMA0GA1UECxMGZmVkbXNnMQ8wDQYDVQQDEwZmZWRtc2cxDzANBgNV
BCkTBmZlZG1zZzEmMCQGCSqGSIb3DQEJARYXYWRtaW5AZmVkb3JhcHJvamVjdC5v
cmcwHhcNMjMwMjIwMTE0MzEyWhcNMzMwMjE3MTE0MzEyWjCBrjELMAkGA1UEBhMC
VVMxCzAJBgNVBAgTAk5DMRAwDgYDVQQHEwdSYWxlaWdoMRcwFQYDVQQKEw5GZWRv
cmEgUHJvamVjdDEPMA0GA1UECxMGZmVkbXNnMRYwFAYDVQQDEw1kdW1teS1yZXZv
a2VkMRYwFAYDVQQpEw1kdW1teS1yZXZva2VkMSYwJAYJKoZIhvcNAQkBFhdhZG1p
bkBmZWRvcmFwcm9qZWN0Lm9yZzCBnzANBgkqhkiG9w0BAQEFAAOBjQAwgYkCgYEA
3sMu4O84tVT/WGV5j7iw1kvfnNjwsHvzDpC1tHEywhv405THk5WikFfV/VarrBv9
Ufj+s9CseGf6z0qh3I/UWRh/nDrJNHqNkslPnfHxHMEFOy8TQOGoC3dZIU9cqmma
NyvrFy6icBMhEmpb/Nc6hAKZCnsCLBilMw2FkrjHBnUCAwEAAaOCAWIwggFeMAkG
A1UdEwQCMAAwLQYJYIZIAYb4QgENBCAWHkVhc3ktUlNBIEdlbmVyYXRlZCBDZXJ0
aWZpY2F0ZTAdBgNVHQ4EFgQUmz4XbT+hKOjnAJAg0PVFAS78hncwgeAGA1UdIwSB
2DCB1YAUhTsLtYYiMt29+OF8icMgrcpEtTihgaakgaMwgaAxCzAJBgNVBAYTAlVT
MQswCQYDVQQIEwJOQzEQMA4GA1UEBxMHUmFsZWlnaDEXMBUGA1UEChMORmVkb3Jh
IFByb2plY3QxDzANBgNVBAsTBmZlZG1zZzEPMA0GA1UEAxMGZmVkbXNnMQ8wDQYD
VQQpEwZmZWRtc2cxJjAkBgkqhkiG9w0BCQEWF2FkbWluQGZlZG9yYXByb2plY3Qu
b3JnghQxGF+aXL7GZB79ILM3srIW++DA9jATBgNVHSUEDDAKBggrBgEFBQcDAjAL
BgNVHQ8EBAMCB4AwDQYJKoZIhvcNAQELBQADgYEAKiKf4M6hMInUhcc90A/MItLq
x6IKU3vM4RihmoGevAMboGpY0RZQt5ebDR9JU4BDcDOrB95CkjPqUIddAsWut3yu
H4HxC3Dw4qbbDDOgCL14xi667hcxaqbAfBQNMtkrm9MFraRr09a3rD/KOBSUxIDU
XdbfrXvs4005uDCG+DE=
-----END CERTIFICATE-----
