Certificate:
    Data:
        Version: 3 (0x2)
        Serial Number: 32 (0x20)
        Signature Algorithm: sha256WithRSAEncryption
        Issuer: C=US, ST=NC, L=Raleigh, O=Fedora Project, OU=fedmsg, CN=fedmsg/name=fedmsg/emailAddress=admin@fedoraproject.org
        Validity
            Not Before: Feb 20 11:43:13 2023 GMT
            Not After : Feb 17 11:43:13 2033 GMT
        Subject: C=US, ST=NC, L=Raleigh, O=Fedora Project, OU=fedmsg, CN=mediawiki-app04.phx2.fedoraproject.org/name=mediawiki-app04.phx2.fedoraproject.org/emailAddress=admin@fedoraproject.org
        Subject Public Key Info:
            Public Key Algorithm: rsaEncryption
                Public-Key: (1024 bit)
                Modulus:
                    00:d3:8f:17:30:73:3e:b3:e7:2d:23:79:db:06:e3:
                    59:06:88:cd:bc:25:dc:26:32:5f:3a:6a:8f:4c:d2:
                    5a:12:3e:8b:04:fd:9a:e8:c4:ea:8f:9a:e7:f2:b1:
                    3f:da:f2:01:12:a2:07:a5:da:56:79:f6:cb:03:43:
                    b5:a2:f0:89:5a:f3:4f:62:32:8e:28:2c:09:b6:b1:
                    2c:5a:27:4b:b2:04:96:a3:49:d9:d1:8f:f0:e4:a5:
                    1d:30:38:4f:12:1f:39:be:b0:7d:be:10:64:dc:17:
                    9f:e2:29:a7:42:18:c6:ec:37:12:78:9a:8f:31:92:
                    d4:09:49:e2:a0:4b:61:2d:4d
                Exponent: 65537 (0x10001)
        X509v3 extensions:
            X509v3 Basic Constraints: 
                CA:FALSE
            Netscape Comment: 
                Easy-RSA Generated Certificate
            X509v3 Subject Key Identifier: 
                D9:50:D2:E9:C3:ED:F1:E2:AF:D9:6C:F3:C0:02:8E:F2:9B:D0:C7:C2
            X509v3 Authority Key Identifier: 
                keyid:85:3B:0B:B5:86:22:32:DD:BD:F8:E1:7C:89:C3:20:AD:CA:44:B5:38
                DirName:/C=US/ST=NC/L=Raleigh/O=Fedora Project/OU=fedmsg/CN=fedmsg/name=fedmsg/emailAddress=admin@fedoraproject.org
                serial:31:18:5F:9A:5C:BE:C6:64:1E:FD:20:B3:37:B2:B2:16:FB:E0:C0:F6
            X509v3 Extended Key Usage: 
                TLS Web Client Authentication
            X509v3 Key Usage: 
                Digital Signature
    Signature Algorithm: sha256WithRSAEncryption
    Signature Value:
        76:79:cf:6d:fe:1e:27:ac:f5:49:94:24:a2:5e:96:24:99:5f:
        d9:07:f1:dc:72:c2:52:f9:9f:23:a8:7e:08:65:d5:3f:d3:da:
        8d:39:83:1c:94:5b:d2:12:d9:33:fb:1f:d1:c5:45:64:56:df:
        fe:5e:bc:be:9d:82:89:aa:0e:6d:1c:56:06:19:b5:0f:24:8f:
        98:29:7b:12:71:15:1b:95:c6:7c:b5:f7:31:7a:88:46:f7:46:
        50:c2:e2:c6:c2:15:07:35:85:f9:dc:5c:72:05:51:86:a7:0a:
        aa:43:10:79:24:a1:f2:ed:bf:77:ba:1c:2c:fc:34:61:3e:51:
        c6:82
-----BEGIN CERTIFICATE-----
MIIEXDCCA8WgAwIBAgIBIDANBgkqhkiG9w0BAQsFADCBoDELMAkGA1UEBhMCVVMx
CzAJBgNVBAgTAk5DMRAwDgYDVQQHEwdSYWxlaWdoMRcwFQYDVQQKEw5GZWRvcmEg
UHJvamVjdDEPMA0GA1UECxMGZmVkbXNnMQ8wDQYDVQQDEwZmZWRtc2cxDzANBgNV
BCkTBmZlZG1zZzEmMCQGCSqGSIb3DQEJARYXYWRtaW5AZmVkb3JhcHJvamVjdC5v
cmcwHhcNMjMwMjIwMTE0MzEzWhcNMzMwMjE3MTE0MzEzWjCB4DELMAkGA1UEBhMC
VVMxCzAJBgNVBAgTAk5DMRAwDgYDVQQHEwdSYWxlaWdoMRcwFQYDVQQKEw5GZWRv
cmEgUHJvamVjdDEPMA0GA1UECxMGZmVkbXNnMS8wLQYDVQQDEyZtZWRpYXdpa2kt
YXBwMDQucGh4Mi5mZWRvcmFwcm9qZWN0Lm9yZzEvMC0GA1UEKRMmbWVkaWF3aWtp
LWFwcDA0LnBoeDIuZmVkb3JhcHJvamVjdC5vcmcxJjAkBgkqhkiG9w0BCQEWF2Fk
bWluQGZlZG9yYXByb2plY3Qub3JnMIGfMA0GCSqGSIb3DQEBAQUAA4GNADCBiQKB
gQDTjxcwcz6z5y0jedsG41kGiM28JdwmMl86ao9M0loSPosE/ZroxOqPmufysT/a
8gESogel2lZ59ssDQ7Wi8Ila809iMo4oLAm2sSxaJ0uyBJajSdnRj/DkpR0wOE8S
Hzm+sH2+EGTcF5/iKadCGMbsNxJ4mo8xktQJSeKgS2EtTQIDAQABo4IBYjCCAV4w
CQYDVR0TBAIwADAtBglghkgBhvhCAQ0EIBYeRWFzeS1SU0EgR2VuZXJhdGVkIENl
cnRpZmljYXRlMB0GA1UdDgQWBBTZUNLpw+3x4q/ZbPPAAo7ym9DHwjCB4AYDVR0j
BIHYMIHVgBSFOwu1hiIy3b344XyJwyCtykS1OKGBpqSBozCBoDELMAkGA1UEBhMC
VVMxCzAJBgNVBAgTAk5DMRAwDgYDVQQHEwdSYWxlaWdoMRcwFQYDVQQKEw5GZWRv
cmEgUHJvamVjdDEPMA0GA1UECxMGZmVkbXNnMQ8wDQYDVQQDEwZmZWRtc2cxDzAN
BgNVBCkTBmZlZG1zZzEmMCQGCSqGSIb3DQEJARYXYWRtaW5AZmVkb3JhcHJvamVj
dC5vcmeCFDEYX5pcvsZkHv0gszeyshb74MD2MBMGA1UdJQQMMAoGCCsGAQUFBwMC
MAsGA1UdDwQEAwIHgDANBgkqhkiG9w0BAQsFAAOBgQB2ec9t/h4nrPVJlCSiXpYk
mV/ZB/HccsJS+Z8jqH4IZdU/09qNOYMclFvSEtkz+x/RxUVkVt/+Xry+nYKJqg5t
HFYGGbUPJI+YKXsScRUblcZ8tfcxeohG90ZQwuLGwhUHNYX53FxyBVGGpwqqQxB5
JKHy7b93uhws/DRhPlHGgg==
-----END CERTIFICATE-----
