Certificate:
    Data:
        Version: 3 (0x2)
        Serial Number: 3 (0x3)
        Signature Algorithm: sha256WithRSAEncryption
        Issuer: C=US, ST=NC, L=Raleigh, O=Fedora Project, OU=fedmsg, CN=fedmsg/name=fedmsg/emailAddress=admin@fedoraproject.org
        Validity
            Not Before: Feb 20 11:43:12 2023 GMT
            Not After : Feb 17 11:43:12 2033 GMT
        Subject: C=US, ST=NC, L=Raleigh, O=Fedora Project, OU=fedmsg, CN=shell-app01.phx2.fedoraproject.org/name=shell-app01.phx2.fedoraproject.org/emailAddress=admin@fedoraproject.org
        Subject Public Key Info:
            Public Key Algorithm: rsaEncryption
                Public-Key: (1024 bit)
                Modulus:
                    00:eb:2a:ae:ad:cc:95:e2:ab:2c:58:0e:0f:8f:ec:
                    c1:41:4f:a7:e3:c6:6e:e7:a8:3a:40:92:d3:17:7a:
                    a6:16:6f:6d:c7:2f:c4:e6:a0:c9:ab:1e:63:bb:d2:
                    36:4d:61:5c:cd:2c:a9:a5:6e:44:fd:ba:38:db:fd:
                    db:2b:a5:e3:6f:2f:b1:bf:2c:11:2a:bd:d9:26:03:
                    01:bd:7d:84:4c:c9:02:21:6e:3f:c8:11:8c:1a:cb:
                    94:4a:d3:1f:b0:e3:93:14:6c:d4:84:ba:d0:b3:3d:
                    2c:6f:82:6d:bd:d1:02:d4:97:c4:32:b3:02:73:2b:
                    8a:ba:10:16:e8:cb:2c:06:f5
                Exponent: 65537 (0x10001)
        X509v3 extensions:
            X509v3 Basic Constraints: 
                CA:FALSE
            Netscape Comment: 
                Easy-RSA Generated Certificate
            X509v3 Subject Key Identifier: 
                4B:56:69:33:15:3E:98:D9:42:9C:3E:0B:0F:AF:BA:DE:33:16:03:E6
            X509v3 Authority Key Identifier: 
                keyid:85:3B:0B:B5:86:22:32:DD:BD:F8:E1:7C:89:C3:20:AD:CA:44:B5:38
                DirName:/C=US/ST=NC/L=Raleigh/O=Fedora Project/OU=fedmsg/CN=fedmsg/name=fedmsg/emailAddress=admin@fedoraproject.org
                serial:31:18:5F:9A:5C:BE:C6:64:1E:FD:20:B3:37:B2:B2:16:FB:E0:C0:F6
            X509v3 Extended Key Usage: 
                TLS Web Client Authentication
            X509v3 Key Usage: 
                Digital Signature
    Signature Algorithm: sha256WithRSAEncryption
    Signature Value:
        28:fa:f3:5a:c3:ec:32:93:71:3f:e9:c3:5d:3d:7a:8d:7c:c6:
        ec:66:96:0a:f6:0e:2e:16:fa:51:c7:b5:cf:75:3a:6c:a4:d3:
        90:4c:fa:17:77:c6:2c:18:7a:b6:b2:aa:17:28:2c:a9:93:72:
        2e:73:a7:5b:cc:1f:96:c7:26:01:54:c8:1f:32:76:fd:0c:20:
        a9:b3:c8:fa:49:44:1c:8f:fe:89:30:08:c7:3d:3d:37:c1:b4:
        70:fa:7c:ed:2f:e7:91:c0:20:61:e4:ce:86:a2:17:a2:2e:59:
        2f:79:34:c2:72:34:52:9e:16:d7:b6:4d:12:e2:e6:89:f4:41:
        63:14
-----BEGIN CERTIFICATE-----
MIIEVDCCA72gAwIBAgIBAzANBgkqhkiG9w0BAQsFADCBoDELMAkGA1UEBhMCVVMx
CzAJBgNVBAgTAk5DMRAwDgYDVQQHEwdSYWxlaWdoMRcwFQYDVQQKEw5GZWRvcmEg
UHJvamVjdDEPMA0GA1UECxMGZmVkbXNnMQ8wDQYDVQQDEwZmZWRtc2cxDzANBgNV
BCkTBmZlZG1zZzEmMCQGCSqGSIb3DQEJARYXYWRtaW5AZmVkb3JhcHJvamVjdC5v
cmcwHhcNMjMwMjIwMTE0MzEyWhcNMzMwMjE3MTE0MzEyWjCB2DELMAkGA1UEBhMC
VVMxCzAJBgNVBAgTAk5DMRAwDgYDVQQHEwdSYWxlaWdoMRcwFQYDVQQKEw5GZWRv
cmEgUHJvamVjdDEPMA0GA1UECxMGZmVkbXNnMSswKQYDVQQDEyJzaGVsbC1hcHAw
MS5waHgyLmZlZG9yYXByb2plY3Qub3JnMSswKQYDVQQpEyJzaGVsbC1hcHAwMS5w
aHgyLmZlZG9yYXByb2plY3Qub3JnMSYwJAYJKoZIhvcNAQkBFhdhZG1pbkBmZWRv
cmFwcm9qZWN0Lm9yZzCBnzANBgkqhkiG9w0BAQEFAAOBjQAwgYkCgYEA6yqurcyV
4qssWA4Pj+zBQU+n48Zu56g6QJLTF3qmFm9txy/E5qDJqx5ju9I2TWFczSyppW5E
/bo42/3bK6Xjby+xvywRKr3ZJgMBvX2ETMkCIW4/yBGMGsuUStMfsOOTFGzUhLrQ
sz0sb4JtvdEC1JfEMrMCcyuKuhAW6MssBvUCAwEAAaOCAWIwggFeMAkGA1UdEwQC
MAAwLQYJYIZIAYb4QgENBCAWHkVhc3ktUlNBIEdlbmVyYXRlZCBDZXJ0aWZpY2F0
ZTAdBgNVHQ4EFgQUS1ZpMxU+mNlCnD4LD6+63jMWA+YwgeAGA1UdIwSB2DCB1YAU
hTsLtYYiMt29+OF8icMgrcpEtTihgaakgaMwgaAxCzAJBgNVBAYTAlVTMQswCQYD
VQQIEwJOQzEQMA4GA1UEBxMHUmFsZWlnaDEXMBUGA1UEChMORmVkb3JhIFByb2pl
Y3QxDzANBgNVBAsTBmZlZG1zZzEPMA0GA1UEAxMGZmVkbXNnMQ8wDQYDVQQpEwZm
ZWRtc2cxJjAkBgkqhkiG9w0BCQEWF2FkbWluQGZlZG9yYXByb2plY3Qub3JnghQx
GF+aXL7GZB79ILM3srIW++DA9jATBgNVHSUEDDAKBggrBgEFBQcDAjALBgNVHQ8E
BAMCB4AwDQYJKoZIhvcNAQELBQADgYEAKPrzWsPsMpNxP+nDXT16jXzG7GaWCvYO
Lhb6Uce1z3U6bKTTkEz6F3fGLBh6trKqFygsqZNyLnOnW8wflscmAVTIHzJ2/Qwg
qbPI+klEHI/+iTAIxz09N8G0cPp87S/nkcAgYeTOhqIXoi5ZL3k0wnI0Up4W17ZN
EuLmifRBYxQ=
-----END CERTIFICATE-----
