Certificate:
    Data:
        Version: 3 (0x2)
        Serial Number: 11 (0xb)
        Signature Algorithm: sha256WithRSAEncryption
        Issuer: C=US, ST=NC, L=Raleigh, O=Fedora Project, OU=fedmsg, CN=fedmsg/name=fedmsg/emailAddress=admin@fedoraproject.org
        Validity
            Not Before: Feb 20 11:43:12 2023 GMT
            Not After : Feb 17 11:43:12 2033 GMT
        Subject: C=US, ST=NC, L=Raleigh, O=Fedora Project, OU=fedmsg, CN=shell-app02.stg.phx2.fedoraproject.org/name=shell-app02.stg.phx2.fedoraproject.org/emailAddress=admin@fedoraproject.org
        Subject Public Key Info:
            Public Key Algorithm: rsaEncryption
                Public-Key: (1024 bit)
                Modulus:
                    00:bc:31:0a:ae:a8:2b:c2:17:a6:b5:ce:e1:22:a5:
                    c1:81:a7:e6:cf:fa:86:b5:74:b7:16:8b:db:1b:7b:
                    cf:87:8a:02:5e:53:a0:e6:7f:82:9c:f6:fa:54:35:
                    34:62:0b:b4:3c:14:cd:bc:b7:53:cf:c4:85:0b:81:
                    11:ce:b8:78:81:98:43:0d:b2:b9:21:ab:84:b5:93:
                    42:5d:bf:f5:4e:31:78:b7:00:70:82:cb:cb:e4:6b:
                    3f:06:7b:43:6e:e8:04:d0:86:a8:bb:68:18:12:32:
                    31:56:2b:ee:07:bd:34:24:c4:ba:4f:09:5b:b0:ec:
                    ca:a7:d3:10:f3:ba:dc:89:f1
                Exponent: 65537 (0x10001)
        X509v3 extensions:
            X509v3 Basic Constraints: 
                CA:FALSE
            Netscape Comment: 
                Easy-RSA Generated Certificate
            X509v3 Subject Key Identifier: 
                3A:20:86:E9:7C:C2:6A:EA:E6:B2:2B:D9:37:AB:CA:FD:BA:35:98:59
            X509v3 Authority Key Identifier: 
                keyid:85:3B:0B:B5:86:22:32:DD:BD:F8:E1:7C:89:C3:20:AD:CA:44:B5:38
                DirName:/C=US/ST=NC/L=Raleigh/O=Fedora Project/OU=fedmsg/CN=fedmsg/name=fedmsg/emailAddress=admin@fedoraproject.org
                serial:31:18:5F:9A:5C:BE:C6:64:1E:FD:20:B3:37:B2:B2:16:FB:E0:C0:F6
            X509v3 Extended Key Usage: 
                TLS Web Client Authentication
            X509v3 Key Usage: 
                Digital Signature
    Signature Algorithm: sha256WithRSAEncryption
    Signature Value:
        66:ab:32:2f:e1:61:e9:d7:39:10:2c:b4:4c:21:16:fc:e2:f8:
        f1:5b:f8:8d:07:ba:c9:d3:2c:b5:fb:01:74:59:a2:99:97:22:
        0a:e3:62:b9:45:c2:6e:67:b0:a1:a5:70:06:34:d9:0e:f1:00:
        ce:3b:28:72:8c:4c:99:15:23:a9:a9:89:77:34:5b:51:42:3d:
        3f:8a:a0:9e:f9:6a:61:61:90:97:14:50:d7:69:bd:bb:e4:59:
        5b:56:55:3b:97:47:c8:57:10:e6:08:ba:ff:dd:c1:10:26:34:
        dd:1c:23:8f:55:c2:5d:f8:9c:05:4b:45:f7:80:b9:48:32:60:
        89:31
-----BEGIN CERTIFICATE-----
MIIEXDCCA8WgAwIBAgIBCzANBgkqhkiG9w0BAQsFADCBoDELMAkGA1UEBhMCVVMx
CzAJBgNVBAgTAk5DMRAwDgYDVQQHEwdSYWxlaWdoMRcwFQYDVQQKEw5GZWRvcmEg
UHJvamVjdDEPMA0GA1UECxMGZmVkbXNnMQ8wDQYDVQQDEwZmZWRtc2cxDzANBgNV
BCkTBmZlZG1zZzEmMCQGCSqGSIb3DQEJARYXYWRtaW5AZmVkb3JhcHJvamVjdC5v
cmcwHhcNMjMwMjIwMTE0MzEyWhcNMzMwMjE3MTE0MzEyWjCB4DELMAkGA1UEBhMC
VVMxCzAJBgNVBAgTAk5DMRAwDgYDVQQHEwdSYWxlaWdoMRcwFQYDVQQKEw5GZWRv
cmEgUHJvamVjdDEPMA0GA1UECxMGZmVkbXNnMS8wLQYDVQQDEyZzaGVsbC1hcHAw
Mi5zdGcucGh4Mi5mZWRvcmFwcm9qZWN0Lm9yZzEvMC0GA1UEKRMmc2hlbGwtYXBw
MDIuc3RnLnBoeDIuZmVkb3JhcHJvamVjdC5vcmcxJjAkBgkqhkiG9w0BCQEWF2Fk
bWluQGZlZG9yYXByb2plY3Qub3JnMIGfMA0GCSqGSIb3DQEBAQUAA4GNADCBiQKB
gQC8MQquqCvCF6a1zuEipcGBp+bP+oa1dLcWi9sbe8+HigJeU6Dmf4Kc9vpUNTRi
C7Q8FM28t1PPxIULgRHOuHiBmEMNsrkhq4S1k0Jdv/VOMXi3AHCCy8vkaz8Ge0Nu
6ATQhqi7aBgSMjFWK+4HvTQkxLpPCVuw7Mqn0xDzutyJ8QIDAQABo4IBYjCCAV4w
CQYDVR0TBAIwADAtBglghkgBhvhCAQ0EIBYeRWFzeS1SU0EgR2VuZXJhdGVkIENl
cnRpZmljYXRlMB0GA1UdDgQWBBQ6IIbpfMJq6uayK9k3q8r9ujWYWTCB4AYDVR0j
BIHYMIHVgBSFOwu1hiIy3b344XyJwyCtykS1OKGBpqSBozCBoDELMAkGA1UEBhMC
VVMxCzAJBgNVBAgTAk5DMRAwDgYDVQQHEwdSYWxlaWdoMRcwFQYDVQQKEw5GZWRv
cmEgUHJvamVjdDEPMA0GA1UECxMGZmVkbXNnMQ8wDQYDVQQDEwZmZWRtc2cxDzAN
BgNVBCkTBmZlZG1zZzEmMCQGCSqGSIb3DQEJARYXYWRtaW5AZmVkb3JhcHJvamVj
dC5vcmeCFDEYX5pcvsZkHv0gszeyshb74MD2MBMGA1UdJQQMMAoGCCsGAQUFBwMC
MAsGA1UdDwQEAwIHgDANBgkqhkiG9w0BAQsFAAOBgQBmqzIv4WHp1zkQLLRMIRb8
4vjxW/iNB7rJ0yy1+wF0WaKZlyIK42K5RcJuZ7ChpXAGNNkO8QDOOyhyjEyZFSOp
qYl3NFtRQj0/iqCe+WphYZCXFFDXab275FlbVlU7l0fIVxDmCLr/3cEQJjTdHCOP
VcJd+JwFS0X3gLlIMmCJMQ==
-----END CERTIFICATE-----
