Certificate:
    Data:
        Version: 3 (0x2)
        Serial Number: 19 (0x13)
        Signature Algorithm: sha256WithRSAEncryption
        Issuer: C=US, ST=NC, L=Raleigh, O=Fedora Project, OU=fedmsg, CN=fedmsg/name=fedmsg/emailAddress=admin@fedoraproject.org
        Validity
            Not Before: Feb 20 11:43:12 2023 GMT
            Not After : Feb 17 11:43:12 2033 GMT
        Subject: C=US, ST=NC, L=Raleigh, O=Fedora Project, OU=fedmsg, CN=shell-pkgs01.stg.phx2.fedoraproject.org/name=shell-pkgs01.stg.phx2.fedoraproject.org/emailAddress=admin@fedoraproject.org
        Subject Public Key Info:
            Public Key Algorithm: rsaEncryption
                Public-Key: (1024 bit)
                Modulus:
                    00:ea:3d:3c:36:f0:67:e1:f6:1a:0a:47:3d:0f:6a:
                    43:a6:ba:bc:59:c5:e5:20:f4:d1:c0:14:9d:4e:1d:
                    3a:ae:b3:5d:76:7c:93:23:66:c1:69:bb:52:16:d4:
                    38:ec:86:fe:30:ca:38:74:8a:88:af:46:9f:1e:6f:
                    f9:a9:27:83:32:02:30:1a:4b:d3:aa:f9:1f:e9:46:
                    11:4c:ae:44:40:e9:f4:e8:76:00:3c:6b:11:b5:ec:
                    f6:45:1a:c2:64:64:1c:a4:33:14:e1:f9:15:4e:2b:
                    6a:c2:79:15:56:70:e9:ee:23:c6:89:42:d8:b2:57:
                    a3:b4:5e:0f:ab:fb:a4:f4:b7
                Exponent: 65537 (0x10001)
        X509v3 extensions:
            X509v3 Basic Constraints: 
                CA:FALSE
            Netscape Comment: 
                Easy-RSA Generated Certificate
            X509v3 Subject Key Identifier: 
                D8:99:EE:9D:9D:C4:C0:F6:6E:3C:41:AA:43:22:9F:09:6B:9E:9B:27
            X509v3 Authority Key Identifier: 
                keyid:85:3B:0B:B5:86:22:32:DD:BD:F8:E1:7C:89:C3:20:AD:CA:44:B5:38
                DirName:/C=US/ST=NC/L=Raleigh/O=Fedora Project/OU=fedmsg/CN=fedmsg/name=fedmsg/emailAddress=admin@fedoraproject.org
                serial:31:18:5F:9A:5C:BE:C6:64:1E:FD:20:B3:37:B2:B2:16:FB:E0:C0:F6
            X509v3 Extended Key Usage: 
                TLS Web Client Authentication
            X509v3 Key Usage: 
                Digital Signature
    Signature Algorithm: sha256WithRSAEncryption
    Signature Value:
        a2:04:7d:80:ae:73:db:c3:75:3b:8e:64:e2:d2:c6:da:cd:87:
        86:7a:02:8c:72:d0:af:b6:4a:5e:5d:50:d4:8b:20:16:00:06:
        33:41:98:9e:41:13:92:eb:e1:a8:d7:fd:c7:5b:c1:94:05:3f:
        51:4c:6b:88:11:dc:8e:62:f6:88:0a:c7:19:bc:b6:01:b7:9f:
        a7:f5:45:b8:0c:0b:af:61:57:18:bd:80:62:ed:0a:4e:9f:13:
        6b:40:cd:4b:1a:3a:51:d4:d6:e4:8c:45:53:11:7d:b0:b6:b6:
        60:c3:2f:d4:ca:e5:f5:fa:91:f0:c4:48:9e:70:80:5b:9d:05:
        6a:5b
-----BEGIN CERTIFICATE-----
MIIEXjCCA8egAwIBAgIBEzANBgkqhkiG9w0BAQsFADCBoDELMAkGA1UEBhMCVVMx
CzAJBgNVBAgTAk5DMRAwDgYDVQQHEwdSYWxlaWdoMRcwFQYDVQQKEw5GZWRvcmEg
UHJvamVjdDEPMA0GA1UECxMGZmVkbXNnMQ8wDQYDVQQDEwZmZWRtc2cxDzANBgNV
BCkTBmZlZG1zZzEmMCQGCSqGSIb3DQEJARYXYWRtaW5AZmVkb3JhcHJvamVjdC5v
cmcwHhcNMjMwMjIwMTE0MzEyWhcNMzMwMjE3MTE0MzEyWjCB4jELMAkGA1UEBhMC
VVMxCzAJBgNVBAgTAk5DMRAwDgYDVQQHEwdSYWxlaWdoMRcwFQYDVQQKEw5GZWRv
cmEgUHJvamVjdDEPMA0GA1UECxMGZmVkbXNnMTAwLgYDVQQDEydzaGVsbC1wa2dz
MDEuc3RnLnBoeDIuZmVkb3JhcHJvamVjdC5vcmcxMDAuBgNVBCkTJ3NoZWxsLXBr
Z3MwMS5zdGcucGh4Mi5mZWRvcmFwcm9qZWN0Lm9yZzEmMCQGCSqGSIb3DQEJARYX
YWRtaW5AZmVkb3JhcHJvamVjdC5vcmcwgZ8wDQYJKoZIhvcNAQEBBQADgY0AMIGJ
AoGBAOo9PDbwZ+H2GgpHPQ9qQ6a6vFnF5SD00cAUnU4dOq6zXXZ8kyNmwWm7UhbU
OOyG/jDKOHSKiK9Gnx5v+akngzICMBpL06r5H+lGEUyuREDp9Oh2ADxrEbXs9kUa
wmRkHKQzFOH5FU4rasJ5FVZw6e4jxolC2LJXo7ReD6v7pPS3AgMBAAGjggFiMIIB
XjAJBgNVHRMEAjAAMC0GCWCGSAGG+EIBDQQgFh5FYXN5LVJTQSBHZW5lcmF0ZWQg
Q2VydGlmaWNhdGUwHQYDVR0OBBYEFNiZ7p2dxMD2bjxBqkMinwlrnpsnMIHgBgNV
HSMEgdgwgdWAFIU7C7WGIjLdvfjhfInDIK3KRLU4oYGmpIGjMIGgMQswCQYDVQQG
EwJVUzELMAkGA1UECBMCTkMxEDAOBgNVBAcTB1JhbGVpZ2gxFzAVBgNVBAoTDkZl
ZG9yYSBQcm9qZWN0MQ8wDQYDVQQLEwZmZWRtc2cxDzANBgNVBAMTBmZlZG1zZzEP
MA0GA1UEKRMGZmVkbXNnMSYwJAYJKoZIhvcNAQkBFhdhZG1pbkBmZWRvcmFwcm9q
ZWN0Lm9yZ4IUMRhfmly+xmQe/SCzN7KyFvvgwPYwEwYDVR0lBAwwCgYIKwYBBQUH
AwIwCwYDVR0PBAQDAgeAMA0GCSqGSIb3DQEBCwUAA4GBAKIEfYCuc9vDdTuOZOLS
xtrNh4Z6Aoxy0K+2Sl5dUNSLIBYABjNBmJ5BE5Lr4ajX/cdbwZQFP1FMa4gR3I5i
9ogKxxm8tgG3n6f1RbgMC69hVxi9gGLtCk6fE2tAzUsaOlHU1uSMRVMRfbC2tmDD
L9TK5fX6kfDESJ5wgFudBWpb
-----END CERTIFICATE-----
