Certificate:
    Data:
        Version: 3 (0x2)
        Serial Number: 17 (0x11)
        Signature Algorithm: sha256WithRSAEncryption
        Issuer: C=US, ST=NC, L=Raleigh, O=Fedora Project, OU=fedmsg, CN=fedmsg/name=fedmsg/emailAddress=admin@fedoraproject.org
        Validity
            Not Before: Feb 20 11:43:12 2023 GMT
            Not After : Feb 17 11:43:12 2033 GMT
        Subject: C=US, ST=NC, L=Raleigh, O=Fedora Project, OU=fedmsg, CN=shell-packages01.stg.phx2.fedoraproject.org/name=shell-packages01.stg.phx2.fedoraproject.org/emailAddress=admin@fedoraproject.org
        Subject Public Key Info:
            Public Key Algorithm: rsaEncryption
                Public-Key: (1024 bit)
                Modulus:
                    00:9f:04:ca:60:4e:f2:5b:b7:57:66:47:26:0e:9c:
                    7a:e0:06:3f:d9:31:5a:07:b6:0f:c4:e2:dc:43:69:
                    b0:ae:e9:41:29:75:ab:ed:93:94:3f:19:09:19:24:
                    ad:02:3b:00:f6:f5:a1:a3:e5:76:c3:9e:b5:c0:e0:
                    a4:5a:f4:5d:19:6c:83:20:6a:2b:ef:a8:fe:f4:d4:
                    a0:00:c5:b4:dd:4c:6a:19:35:67:58:df:ec:af:3d:
                    8b:81:64:91:a4:59:22:45:b4:70:4e:f1:77:ab:cb:
                    71:41:8b:cd:f8:15:f2:0d:f5:9a:83:8e:f9:9f:96:
                    ed:ad:ed:0c:a6:7b:b8:06:3b
                Exponent: 65537 (0x10001)
        X509v3 extensions:
            X509v3 Basic Constraints: 
                CA:FALSE
            Netscape Comment: 
                Easy-RSA Generated Certificate
            X509v3 Subject Key Identifier: 
                6C:54:DA:9B:3E:AD:7F:40:46:0C:5A:7E:B6:04:29:57:25:8F:BB:60
            X509v3 Authority Key Identifier: 
                keyid:85:3B:0B:B5:86:22:32:DD:BD:F8:E1:7C:89:C3:20:AD:CA:44:B5:38
                DirName:/C=US/ST=NC/L=Raleigh/O=Fedora Project/OU=fedmsg/CN=fedmsg/name=fedmsg/emailAddress=admin@fedoraproject.org
                serial:31:18:5F:9A:5C:BE:C6:64:1E:FD:20:B3:37:B2:B2:16:FB:E0:C0:F6
            X509v3 Extended Key Usage: 
                TLS Web Client Authentication
            X509v3 Key Usage: 
                Digital Signature
    Signature Algorithm: sha256WithRSAEncryption
    Signature Value:
        4a:52:a8:bb:0b:39:85:bd:9c:71:c9:62:83:79:ab:16:64:bc:
        75:8a:e1:d5:e2:ad:cc:a1:5a:5a:15:f2:f3:b3:89:38:82:bf:
        9c:a2:68:6f:6d:dc:ac:57:6d:be:4e:fa:fa:4f:84:46:6a:7f:
        c5:12:16:bc:58:04:29:dc:31:59:2a:c5:04:2a:01:a2:c0:b8:
        83:74:96:bb:8a:36:84:29:8c:72:e1:89:50:c2:9c:34:69:a2:
        2a:2a:a6:b8:b3:db:95:5e:80:07:a2:dc:8a:3c:97:ba:71:42:
        2d:66:44:ca:29:b8:46:21:f9:92:88:4b:f4:6c:f9:dc:bc:d7:
        9d:ba
-----BEGIN CERTIFICATE-----
MIIEZjCCA8+gAwIBAgIBETANBgkqhkiG9w0BAQsFADCBoDELMAkGA1UEBhMCVVMx
CzAJBgNVBAgTAk5DMRAwDgYDVQQHEwdSYWxlaWdoMRcwFQYDVQQKEw5GZWRvcmEg
UHJvamVjdDEPMA0GA1UECxMGZmVkbXNnMQ8wDQYDVQQDEwZmZWRtc2cxDzANBgNV
BCkTBmZlZG1zZzEmMCQGCSqGSIb3DQEJARYXYWRtaW5AZmVkb3JhcHJvamVjdC5v
cmcwHhcNMjMwMjIwMTE0MzEyWhcNMzMwMjE3MTE0MzEyWjCB6jELMAkGA1UEBhMC
VVMxCzAJBgNVBAgTAk5DMRAwDgYDVQQHEwdSYWxlaWdoMRcwFQYDVQQKEw5GZWRv
cmEgUHJvamVjdDEPMA0GA1UECxMGZmVkbXNnMTQwMgYDVQQDEytzaGVsbC1wYWNr
YWdlczAxLnN0Zy5waHgyLmZlZG9yYXByb2plY3Qub3JnMTQwMgYDVQQpEytzaGVs
bC1wYWNrYWdlczAxLnN0Zy5waHgyLmZlZG9yYXByb2plY3Qub3JnMSYwJAYJKoZI
hvcNAQkBFhdhZG1pbkBmZWRvcmFwcm9qZWN0Lm9yZzCBnzANBgkqhkiG9w0BAQEF
AAOBjQAwgYkCgYEAnwTKYE7yW7dXZkcmDpx64AY/2TFaB7YPxOLcQ2mwrulBKXWr
7ZOUPxkJGSStAjsA9vWho+V2w561wOCkWvRdGWyDIGor76j+9NSgAMW03UxqGTVn
WN/srz2LgWSRpFkiRbRwTvF3q8txQYvN+BXyDfWag475n5btre0Mpnu4BjsCAwEA
AaOCAWIwggFeMAkGA1UdEwQCMAAwLQYJYIZIAYb4QgENBCAWHkVhc3ktUlNBIEdl
bmVyYXRlZCBDZXJ0aWZpY2F0ZTAdBgNVHQ4EFgQUbFTamz6tf0BGDFp+tgQpVyWP
u2AwgeAGA1UdIwSB2DCB1YAUhTsLtYYiMt29+OF8icMgrcpEtTihgaakgaMwgaAx
CzAJBgNVBAYTAlVTMQswCQYDVQQIEwJOQzEQMA4GA1UEBxMHUmFsZWlnaDEXMBUG
A1UEChMORmVkb3JhIFByb2plY3QxDzANBgNVBAsTBmZlZG1zZzEPMA0GA1UEAxMG
ZmVkbXNnMQ8wDQYDVQQpEwZmZWRtc2cxJjAkBgkqhkiG9w0BCQEWF2FkbWluQGZl
ZG9yYXByb2plY3Qub3JnghQxGF+aXL7GZB79ILM3srIW++DA9jATBgNVHSUEDDAK
BggrBgEFBQcDAjALBgNVHQ8EBAMCB4AwDQYJKoZIhvcNAQELBQADgYEASlKouws5
hb2ccclig3mrFmS8dYrh1eKtzKFaWhXy87OJOIK/nKJob23crFdtvk76+k+ERmp/
xRIWvFgEKdwxWSrFBCoBosC4g3SWu4o2hCmMcuGJUMKcNGmiKiqmuLPblV6AB6Lc
ijyXunFCLWZEyim4RiH5kohL9Gz53LzXnbo=
-----END CERTIFICATE-----
