Certificate:
    Data:
        Version: 3 (0x2)
        Serial Number: 4 (0x4)
        Signature Algorithm: sha256WithRSAEncryption
        Issuer: C=US, ST=NC, L=Raleigh, O=Fedora Project, OU=fedmsg, CN=fedmsg/name=fedmsg/emailAddress=admin@fedoraproject.org
        Validity
            Not Before: Feb 20 11:43:12 2023 GMT
            Not After : Feb 17 11:43:12 2033 GMT
        Subject: C=US, ST=NC, L=Raleigh, O=Fedora Project, OU=fedmsg, CN=shell-app02.phx2.fedoraproject.org/name=shell-app02.phx2.fedoraproject.org/emailAddress=admin@fedoraproject.org
        Subject Public Key Info:
            Public Key Algorithm: rsaEncryption
                Public-Key: (1024 bit)
                Modulus:
                    00:aa:a5:be:ff:98:43:e3:a6:91:13:e9:98:20:ed:
                    52:37:ed:a8:41:4e:0a:b1:e2:0b:87:8f:d8:f4:16:
                    ec:e4:d3:0d:fa:d5:d3:43:84:1c:cc:ce:e7:5a:3a:
                    d4:81:95:29:34:8a:7c:25:2c:f3:5f:ce:21:98:8d:
                    62:5a:b5:cd:2a:7c:6f:3a:35:52:d3:7f:a7:1c:97:
                    ab:a7:8f:9a:f5:47:ae:d7:80:ac:7b:b9:5a:25:d1:
                    ad:f2:3a:ff:c8:b1:38:19:ed:4c:3b:44:2a:5e:e2:
                    17:a0:5e:08:cf:00:b1:3f:c9:fe:12:c7:3e:f7:46:
                    44:0d:5c:d1:48:85:9f:cd:37
                Exponent: 65537 (0x10001)
        X509v3 extensions:
            X509v3 Basic Constraints: 
                CA:FALSE
            Netscape Comment: 
                Easy-RSA Generated Certificate
            X509v3 Subject Key Identifier: 
                A4:20:87:E2:51:2D:F0:57:F0:B2:8D:61:44:80:12:DF:A1:8C:EF:89
            X509v3 Authority Key Identifier: 
                keyid:85:3B:0B:B5:86:22:32:DD:BD:F8:E1:7C:89:C3:20:AD:CA:44:B5:38
                DirName:/C=US/ST=NC/L=Raleigh/O=Fedora Project/OU=fedmsg/CN=fedmsg/name=fedmsg/emailAddress=admin@fedoraproject.org
                serial:31:18:5F:9A:5C:BE:C6:64:1E:FD:20:B3:37:B2:B2:16:FB:E0:C0:F6
            X509v3 Extended Key Usage: 
                TLS Web Client Authentication
            X509v3 Key Usage: 
                Digital Signature
    Signature Algorithm: sha256WithRSAEncryption
    Signature Value:
        69:41:49:33:04:95:40:b4:f3:9c:74:d0:22:27:c7:34:f3:8f:
        31:3c:94:e2:0b:5b:e7:0d:d2:9a:e9:8f:3c:9e:96:4e:d9:b4:
        4f:ec:ad:e5:93:59:29:eb:92:a2:09:d3:c3:d9:3b:38:f3:9b:
        63:e2:d1:3d:c3:97:bb:c3:99:42:15:53:57:7e:6c:b6:63:a1:
        eb:fe:df:95:ae:f1:ec:06:7d:f0:df:a0:38:07:9a:6c:55:05:
        f1:e5:66:33:b5:b1:b2:72:8a:55:a5:75:3b:e3:cb:77:db:4c:
        4d:b7:ff:98:8f:d2:52:71:83:f4:84:94:b2:f1:38:e1:c7:de:
        b7:9f
-----BEGIN CERTIFICATE-----
MIIEVDCCA72gAwIBAgIBBDANBgkqhkiG9w0BAQsFADCBoDELMAkGA1UEBhMCVVMx
CzAJBgNVBAgTAk5DMRAwDgYDVQQHEwdSYWxlaWdoMRcwFQYDVQQKEw5GZWRvcmEg
UHJvamVjdDEPMA0GA1UECxMGZmVkbXNnMQ8wDQYDVQQDEwZmZWRtc2cxDzANBgNV
BCkTBmZlZG1zZzEmMCQGCSqGSIb3DQEJARYXYWRtaW5AZmVkb3JhcHJvamVjdC5v
cmcwHhcNMjMwMjIwMTE0MzEyWhcNMzMwMjE3MTE0MzEyWjCB2DELMAkGA1UEBhMC
VVMxCzAJBgNVBAgTAk5DMRAwDgYDVQQHEwdSYWxlaWdoMRcwFQYDVQQKEw5GZWRv
cmEgUHJvamVjdDEPMA0GA1UECxMGZmVkbXNnMSswKQYDVQQDEyJzaGVsbC1hcHAw
Mi5waHgyLmZlZG9yYXByb2plY3Qub3JnMSswKQYDVQQpEyJzaGVsbC1hcHAwMi5w
aHgyLmZlZG9yYXByb2plY3Qub3JnMSYwJAYJKoZIhvcNAQkBFhdhZG1pbkBmZWRv
cmFwcm9qZWN0Lm9yZzCBnzANBgkqhkiG9w0BAQEFAAOBjQAwgYkCgYEAqqW+/5hD
46aRE+mYIO1SN+2oQU4KseILh4/Y9Bbs5NMN+tXTQ4QczM7nWjrUgZUpNIp8JSzz
X84hmI1iWrXNKnxvOjVS03+nHJerp4+a9Ueu14Cse7laJdGt8jr/yLE4Ge1MO0Qq
XuIXoF4IzwCxP8n+Esc+90ZEDVzRSIWfzTcCAwEAAaOCAWIwggFeMAkGA1UdEwQC
MAAwLQYJYIZIAYb4QgENBCAWHkVhc3ktUlNBIEdlbmVyYXRlZCBDZXJ0aWZpY2F0
ZTAdBgNVHQ4EFgQUpCCH4lEt8Ffwso1hRIAS36GM74kwgeAGA1UdIwSB2DCB1YAU
hTsLtYYiMt29+OF8icMgrcpEtTihgaakgaMwgaAxCzAJBgNVBAYTAlVTMQswCQYD
VQQIEwJOQzEQMA4GA1UEBxMHUmFsZWlnaDEXMBUGA1UEChMORmVkb3JhIFByb2pl
Y3QxDzANBgNVBAsTBmZlZG1zZzEPMA0GA1UEAxMGZmVkbXNnMQ8wDQYDVQQpEwZm
ZWRtc2cxJjAkBgkqhkiG9w0BCQEWF2FkbWluQGZlZG9yYXByb2plY3Qub3JnghQx
GF+aXL7GZB79ILM3srIW++DA9jATBgNVHSUEDDAKBggrBgEFBQcDAjALBgNVHQ8E
BAMCB4AwDQYJKoZIhvcNAQELBQADgYEAaUFJMwSVQLTznHTQIifHNPOPMTyU4gtb
5w3SmumPPJ6WTtm0T+yt5ZNZKeuSognTw9k7OPObY+LRPcOXu8OZQhVTV35stmOh
6/7fla7x7AZ98N+gOAeabFUF8eVmM7WxsnKKVaV1O+PLd9tMTbf/mI/SUnGD9ISU
svE44cfet58=
-----END CERTIFICATE-----
