Certificate:
    Data:
        Version: 3 (0x2)
        Serial Number: 14 (0xe)
        Signature Algorithm: sha256WithRSAEncryption
        Issuer: C=US, ST=NC, L=Raleigh, O=Fedora Project, OU=fedmsg, CN=fedmsg/name=fedmsg/emailAddress=admin@fedoraproject.org
        Validity
            Not Before: Feb 20 11:43:12 2023 GMT
            Not After : Feb 17 11:43:12 2033 GMT
        Subject: C=US, ST=NC, L=Raleigh, O=Fedora Project, OU=fedmsg, CN=shell-fas01.dev.phx2.fedoraproject.org/name=shell-fas01.dev.phx2.fedoraproject.org/emailAddress=admin@fedoraproject.org
        Subject Public Key Info:
            Public Key Algorithm: rsaEncryption
                Public-Key: (1024 bit)
                Modulus:
                    00:d2:fe:52:14:07:e5:de:e4:ab:fc:bd:ad:34:77:
                    88:9b:f3:a1:99:ae:17:bc:9d:8f:38:03:13:60:b6:
                    13:7b:a3:9a:c8:72:96:63:47:aa:a6:23:e3:1c:b4:
                    6a:68:e2:f4:80:64:2d:46:14:07:10:f7:a2:05:fc:
                    46:62:d2:2f:a4:65:9b:e7:83:01:2d:7f:59:60:8a:
                    9b:95:58:94:ba:c1:70:be:47:90:45:00:40:a7:50:
                    48:c7:87:bc:18:11:78:09:5a:d5:c6:e1:34:9f:8f:
                    96:68:b0:a4:71:18:c4:93:fa:ba:e9:c1:a1:01:41:
                    55:f7:de:e3:48:82:65:b1:e5
                Exponent: 65537 (0x10001)
        X509v3 extensions:
            X509v3 Basic Constraints: 
                CA:FALSE
            Netscape Comment: 
                Easy-RSA Generated Certificate
            X509v3 Subject Key Identifier: 
                AD:61:9A:63:E2:1C:5D:5E:78:17:C2:1B:5B:F2:5F:51:75:14:3B:72
            X509v3 Authority Key Identifier: 
                keyid:85:3B:0B:B5:86:22:32:DD:BD:F8:E1:7C:89:C3:20:AD:CA:44:B5:38
                DirName:/C=US/ST=NC/L=Raleigh/O=Fedora Project/OU=fedmsg/CN=fedmsg/name=fedmsg/emailAddress=admin@fedoraproject.org
                serial:31:18:5F:9A:5C:BE:C6:64:1E:FD:20:B3:37:B2:B2:16:FB:E0:C0:F6
            X509v3 Extended Key Usage: 
                TLS Web Client Authentication
            X509v3 Key Usage: 
                Digital Signature
    Signature Algorithm: sha256WithRSAEncryption
    Signature Value:
        53:4e:d4:a0:c6:b8:9e:27:8e:84:fd:31:8c:d0:d5:44:9f:ab:
        63:0e:96:2c:e1:51:92:12:f5:3c:b4:08:0e:93:f0:f5:fb:95:
        25:40:33:fe:ad:53:4f:54:35:2e:f9:cb:71:38:79:6c:47:be:
        75:f0:31:14:9d:5f:34:65:98:6e:b6:28:56:99:7e:27:46:26:
        bf:ae:0e:b1:6b:59:88:d8:5a:9a:5c:1f:67:f6:16:19:b5:f0:
        38:58:c6:d4:2e:d9:3f:5d:ab:2b:f4:1b:ee:76:d2:ab:97:6d:
        e5:e0:48:18:5b:76:75:46:1b:e9:22:8f:59:87:24:af:7e:11:
        0b:44
-----BEGIN CERTIFICATE-----
MIIEXDCCA8WgAwIBAgIBDjANBgkqhkiG9w0BAQsFADCBoDELMAkGA1UEBhMCVVMx
CzAJBgNVBAgTAk5DMRAwDgYDVQQHEwdSYWxlaWdoMRcwFQYDVQQKEw5GZWRvcmEg
UHJvamVjdDEPMA0GA1UECxMGZmVkbXNnMQ8wDQYDVQQDEwZmZWRtc2cxDzANBgNV
BCkTBmZlZG1zZzEmMCQGCSqGSIb3DQEJARYXYWRtaW5AZmVkb3JhcHJvamVjdC5v
cmcwHhcNMjMwMjIwMTE0MzEyWhcNMzMwMjE3MTE0MzEyWjCB4DELMAkGA1UEBhMC
VVMxCzAJBgNVBAgTAk5DMRAwDgYDVQQHEwdSYWxlaWdoMRcwFQYDVQQKEw5GZWRv
cmEgUHJvamVjdDEPMA0GA1UECxMGZmVkbXNnMS8wLQYDVQQDEyZzaGVsbC1mYXMw
MS5kZXYucGh4Mi5mZWRvcmFwcm9qZWN0Lm9yZzEvMC0GA1UEKRMmc2hlbGwtZmFz
MDEuZGV2LnBoeDIuZmVkb3JhcHJvamVjdC5vcmcxJjAkBgkqhkiG9w0BCQEWF2Fk
bWluQGZlZG9yYXByb2plY3Qub3JnMIGfMA0GCSqGSIb3DQEBAQUAA4GNADCBiQKB
gQDS/lIUB+Xe5Kv8va00d4ib86GZrhe8nY84AxNgthN7o5rIcpZjR6qmI+MctGpo
4vSAZC1GFAcQ96IF/EZi0i+kZZvngwEtf1lgipuVWJS6wXC+R5BFAECnUEjHh7wY
EXgJWtXG4TSfj5ZosKRxGMST+rrpwaEBQVX33uNIgmWx5QIDAQABo4IBYjCCAV4w
CQYDVR0TBAIwADAtBglghkgBhvhCAQ0EIBYeRWFzeS1SU0EgR2VuZXJhdGVkIENl
cnRpZmljYXRlMB0GA1UdDgQWBBStYZpj4hxdXngXwhtb8l9RdRQ7cjCB4AYDVR0j
BIHYMIHVgBSFOwu1hiIy3b344XyJwyCtykS1OKGBpqSBozCBoDELMAkGA1UEBhMC
VVMxCzAJBgNVBAgTAk5DMRAwDgYDVQQHEwdSYWxlaWdoMRcwFQYDVQQKEw5GZWRv
cmEgUHJvamVjdDEPMA0GA1UECxMGZmVkbXNnMQ8wDQYDVQQDEwZmZWRtc2cxDzAN
BgNVBCkTBmZlZG1zZzEmMCQGCSqGSIb3DQEJARYXYWRtaW5AZmVkb3JhcHJvamVj
dC5vcmeCFDEYX5pcvsZkHv0gszeyshb74MD2MBMGA1UdJQQMMAoGCCsGAQUFBwMC
MAsGA1UdDwQEAwIHgDANBgkqhkiG9w0BAQsFAAOBgQBTTtSgxrieJ46E/TGM0NVE
n6tjDpYs4VGSEvU8tAgOk/D1+5UlQDP+rVNPVDUu+ctxOHlsR7518DEUnV80ZZhu
tihWmX4nRia/rg6xa1mI2FqaXB9n9hYZtfA4WMbULtk/Xasr9BvudtKrl23l4EgY
W3Z1RhvpIo9ZhySvfhELRA==
-----END CERTIFICATE-----
