Certificate:
    Data:
        Version: 3 (0x2)
        Serial Number: 6 (0x6)
        Signature Algorithm: sha1WithRSAEncryption
        Issuer: C=US, ST=NC, L=Raleigh, O=Fedora Project, OU=fedmsg, CN=fedmsg/name=fedmsg/emailAddress=admin@fedoraproject.org
        Validity
            Not Before: Jul 15 21:18:52 2012 GMT
            Not After : Jul 13 21:18:52 2022 GMT
        Subject: C=US, ST=NC, L=Raleigh, O=Fedora Project, OU=fedmsg, CN=shell-app04.phx2.fedoraproject.org/name=shell-app04.phx2.fedoraproject.org/emailAddress=admin@fedoraproject.org
        Subject Public Key Info:
            Public Key Algorithm: rsaEncryption
                Public-Key: (1024 bit)
                Modulus:
                    00:e8:ae:46:69:1a:0e:10:7f:93:dd:18:cf:e0:62:
                    75:ef:44:6f:fc:79:d3:c6:6b:0c:27:84:2e:b5:41:
                    53:eb:ad:24:41:1c:1b:2c:8e:da:87:17:9b:12:35:
                    cf:d4:e7:68:93:47:12:b6:e3:10:e7:aa:73:1e:fc:
                    82:47:1f:92:30:ba:89:2e:36:91:b6:55:32:c0:12:
                    cf:75:6b:5b:98:06:06:5c:92:a5:fe:b6:26:dc:ea:
                    12:72:be:2b:e5:b4:62:e2:12:82:94:d8:79:c6:14:
                    0f:63:64:ad:7b:73:d4:83:9d:c2:b5:54:5e:d5:ab:
                    3e:c1:2e:66:8b:2e:ef:42:35
                Exponent: 65537 (0x10001)
        X509v3 extensions:
            X509v3 Basic Constraints: 
                CA:FALSE
            Netscape Comment: 
                Easy-RSA Generated Certificate
            X509v3 Subject Key Identifier: 
                AE:12:E4:43:F3:1A:3F:DA:A5:21:20:DF:57:3D:C6:76:31:F6:A4:00
            X509v3 Authority Key Identifier: 
                keyid:00:98:A5:D5:E7:C4:55:0E:84:A3:67:FE:66:4A:16:E0:04:15:DD:21
                DirName:/C=US/ST=NC/L=Raleigh/O=Fedora Project/OU=fedmsg/CN=fedmsg/name=fedmsg/emailAddress=admin@fedoraproject.org
                serial:8E:EB:28:D8:A9:13:9D:7C

            X509v3 Extended Key Usage: 
                TLS Web Client Authentication
            X509v3 Key Usage: 
                Digital Signature
    Signature Algorithm: sha1WithRSAEncryption
        ca:49:0a:ad:a8:10:3f:56:67:2a:80:18:03:5c:e3:2a:c0:5f:
        60:a0:94:32:e4:b5:8d:ce:84:99:f2:a2:5c:37:05:d2:e0:25:
        cb:7d:cf:44:0f:88:24:56:b7:6e:2c:c0:61:21:93:42:3b:a8:
        56:d2:57:14:8e:36:1b:6f:b6:30:32:ea:19:3a:61:83:0b:36:
        ef:1b:d7:74:c8:ed:75:e4:e6:5c:9f:44:e6:d8:2d:c8:be:d9:
        b3:81:33:8c:69:09:5b:8c:6c:fb:a1:3d:09:e4:8d:11:fb:a3:
        2c:e8:5a:79:b8:5e:ea:67:5d:1f:22:95:73:8c:99:0e:05:2a:
        fb:29
-----BEGIN CERTIFICATE-----
MIIESTCCA7KgAwIBAgIBBjANBgkqhkiG9w0BAQUFADCBoDELMAkGA1UEBhMCVVMx
CzAJBgNVBAgTAk5DMRAwDgYDVQQHEwdSYWxlaWdoMRcwFQYDVQQKEw5GZWRvcmEg
UHJvamVjdDEPMA0GA1UECxMGZmVkbXNnMQ8wDQYDVQQDEwZmZWRtc2cxDzANBgNV
BCkTBmZlZG1zZzEmMCQGCSqGSIb3DQEJARYXYWRtaW5AZmVkb3JhcHJvamVjdC5v
cmcwHhcNMTIwNzE1MjExODUyWhcNMjIwNzEzMjExODUyWjCB2DELMAkGA1UEBhMC
VVMxCzAJBgNVBAgTAk5DMRAwDgYDVQQHEwdSYWxlaWdoMRcwFQYDVQQKEw5GZWRv
cmEgUHJvamVjdDEPMA0GA1UECxMGZmVkbXNnMSswKQYDVQQDEyJzaGVsbC1hcHAw
NC5waHgyLmZlZG9yYXByb2plY3Qub3JnMSswKQYDVQQpEyJzaGVsbC1hcHAwNC5w
aHgyLmZlZG9yYXByb2plY3Qub3JnMSYwJAYJKoZIhvcNAQkBFhdhZG1pbkBmZWRv
cmFwcm9qZWN0Lm9yZzCBnzANBgkqhkiG9w0BAQEFAAOBjQAwgYkCgYEA6K5GaRoO
EH+T3RjP4GJ170Rv/HnTxmsMJ4QutUFT660kQRwbLI7ahxebEjXP1Odok0cStuMQ
56pzHvyCRx+SMLqJLjaRtlUywBLPdWtbmAYGXJKl/rYm3OoScr4r5bRi4hKClNh5
xhQPY2Ste3PUg53CtVRe1as+wS5miy7vQjUCAwEAAaOCAVcwggFTMAkGA1UdEwQC
MAAwLQYJYIZIAYb4QgENBCAWHkVhc3ktUlNBIEdlbmVyYXRlZCBDZXJ0aWZpY2F0
ZTAdBgNVHQ4EFgQUrhLkQ/MaP9qlISDfVz3GdjH2pAAwgdUGA1UdIwSBzTCByoAU
AJil1efEVQ6Eo2f+ZkoW4AQV3SGhgaakgaMwgaAxCzAJBgNVBAYTAlVTMQswCQYD
VQQIEwJOQzEQMA4GA1UEBxMHUmFsZWlnaDEXMBUGA1UEChMORmVkb3JhIFByb2pl
Y3QxDzANBgNVBAsTBmZlZG1zZzEPMA0GA1UEAxMGZmVkbXNnMQ8wDQYDVQQpEwZm
ZWRtc2cxJjAkBgkqhkiG9w0BCQEWF2FkbWluQGZlZG9yYXByb2plY3Qub3JnggkA
juso2KkTnXwwEwYDVR0lBAwwCgYIKwYBBQUHAwIwCwYDVR0PBAQDAgeAMA0GCSqG
SIb3DQEBBQUAA4GBAMpJCq2oED9WZyqAGANc4yrAX2CglDLktY3OhJnyolw3BdLg
Jct9z0QPiCRWt24swGEhk0I7qFbSVxSONhtvtjAy6hk6YYMLNu8b13TI7XXk5lyf
RObYLci+2bOBM4xpCVuMbPuhPQnkjRH7oyzoWnm4XupnXR8ilXOMmQ4FKvsp
-----END CERTIFICATE-----
