Certificate:
    Data:
        Version: 3 (0x2)
        Serial Number: 10 (0xa)
        Signature Algorithm: sha256WithRSAEncryption
        Issuer: C=US, ST=NC, L=Raleigh, O=Fedora Project, OU=fedmsg, CN=fedmsg/name=fedmsg/emailAddress=admin@fedoraproject.org
        Validity
            Not Before: Feb 20 11:43:12 2023 GMT
            Not After : Feb 17 11:43:12 2033 GMT
        Subject: C=US, ST=NC, L=Raleigh, O=Fedora Project, OU=fedmsg, CN=shell-app01.stg.phx2.fedoraproject.org/name=shell-app01.stg.phx2.fedoraproject.org/emailAddress=admin@fedoraproject.org
        Subject Public Key Info:
            Public Key Algorithm: rsaEncryption
                Public-Key: (1024 bit)
                Modulus:
                    00:c2:46:16:22:22:6e:61:63:36:b1:08:41:69:00:
                    6d:45:99:73:ab:94:1a:ac:c5:ad:b4:3d:b1:1d:13:
                    b1:59:e6:ae:2c:61:51:26:66:c9:8f:4b:3a:0e:e9:
                    d0:52:50:2b:59:15:c1:ac:18:06:29:aa:df:b7:fc:
                    9f:df:bb:53:d5:35:67:1d:b4:4b:a5:28:3b:ff:53:
                    0f:6b:69:d9:be:c6:1d:3a:c7:c3:cf:e8:8c:cd:8e:
                    44:c5:3a:88:e7:62:1c:f5:19:3d:52:30:85:33:35:
                    88:09:33:91:a8:f7:52:c6:0b:39:30:3c:18:9b:6f:
                    68:07:18:31:86:76:81:bc:f7
                Exponent: 65537 (0x10001)
        X509v3 extensions:
            X509v3 Basic Constraints: 
                CA:FALSE
            Netscape Comment: 
                Easy-RSA Generated Certificate
            X509v3 Subject Key Identifier: 
                AF:77:69:DA:DE:A5:3A:75:0F:20:72:25:82:41:84:50:CF:32:B2:03
            X509v3 Authority Key Identifier: 
                keyid:85:3B:0B:B5:86:22:32:DD:BD:F8:E1:7C:89:C3:20:AD:CA:44:B5:38
                DirName:/C=US/ST=NC/L=Raleigh/O=Fedora Project/OU=fedmsg/CN=fedmsg/name=fedmsg/emailAddress=admin@fedoraproject.org
                serial:31:18:5F:9A:5C:BE:C6:64:1E:FD:20:B3:37:B2:B2:16:FB:E0:C0:F6
            X509v3 Extended Key Usage: 
                TLS Web Client Authentication
            X509v3 Key Usage: 
                Digital Signature
    Signature Algorithm: sha256WithRSAEncryption
    Signature Value:
        2b:84:85:0e:84:62:be:54:69:9f:98:9b:b1:7b:21:24:6a:7b:
        ce:dc:ce:5c:97:1d:30:40:03:35:dc:d4:fe:3f:f4:1d:8b:c9:
        06:58:13:68:7d:2c:80:0d:89:09:e8:41:e7:d2:e0:11:65:f2:
        f9:77:df:6e:79:4f:14:d7:0f:44:86:02:92:7c:4b:84:58:ba:
        6a:38:92:ba:94:42:e1:92:b3:f6:53:b5:91:00:b8:ae:f3:cd:
        22:00:63:87:a6:22:89:82:21:93:5f:78:95:d8:31:3b:18:08:
        3d:f6:82:87:1c:53:f0:17:47:c4:04:ba:1c:58:aa:58:2f:25:
        eb:62
-----BEGIN CERTIFICATE-----
MIIEXDCCA8WgAwIBAgIBCjANBgkqhkiG9w0BAQsFADCBoDELMAkGA1UEBhMCVVMx
CzAJBgNVBAgTAk5DMRAwDgYDVQQHEwdSYWxlaWdoMRcwFQYDVQQKEw5GZWRvcmEg
UHJvamVjdDEPMA0GA1UECxMGZmVkbXNnMQ8wDQYDVQQDEwZmZWRtc2cxDzANBgNV
BCkTBmZlZG1zZzEmMCQGCSqGSIb3DQEJARYXYWRtaW5AZmVkb3JhcHJvamVjdC5v
cmcwHhcNMjMwMjIwMTE0MzEyWhcNMzMwMjE3MTE0MzEyWjCB4DELMAkGA1UEBhMC
VVMxCzAJBgNVBAgTAk5DMRAwDgYDVQQHEwdSYWxlaWdoMRcwFQYDVQQKEw5GZWRv
cmEgUHJvamVjdDEPMA0GA1UECxMGZmVkbXNnMS8wLQYDVQQDEyZzaGVsbC1hcHAw
MS5zdGcucGh4Mi5mZWRvcmFwcm9qZWN0Lm9yZzEvMC0GA1UEKRMmc2hlbGwtYXBw
MDEuc3RnLnBoeDIuZmVkb3JhcHJvamVjdC5vcmcxJjAkBgkqhkiG9w0BCQEWF2Fk
bWluQGZlZG9yYXByb2plY3Qub3JnMIGfMA0GCSqGSIb3DQEBAQUAA4GNADCBiQKB
gQDCRhYiIm5hYzaxCEFpAG1FmXOrlBqsxa20PbEdE7FZ5q4sYVEmZsmPSzoO6dBS
UCtZFcGsGAYpqt+3/J/fu1PVNWcdtEulKDv/Uw9radm+xh06x8PP6IzNjkTFOojn
Yhz1GT1SMIUzNYgJM5Go91LGCzkwPBibb2gHGDGGdoG89wIDAQABo4IBYjCCAV4w
CQYDVR0TBAIwADAtBglghkgBhvhCAQ0EIBYeRWFzeS1SU0EgR2VuZXJhdGVkIENl
cnRpZmljYXRlMB0GA1UdDgQWBBSvd2na3qU6dQ8gciWCQYRQzzKyAzCB4AYDVR0j
BIHYMIHVgBSFOwu1hiIy3b344XyJwyCtykS1OKGBpqSBozCBoDELMAkGA1UEBhMC
VVMxCzAJBgNVBAgTAk5DMRAwDgYDVQQHEwdSYWxlaWdoMRcwFQYDVQQKEw5GZWRv
cmEgUHJvamVjdDEPMA0GA1UECxMGZmVkbXNnMQ8wDQYDVQQDEwZmZWRtc2cxDzAN
BgNVBCkTBmZlZG1zZzEmMCQGCSqGSIb3DQEJARYXYWRtaW5AZmVkb3JhcHJvamVj
dC5vcmeCFDEYX5pcvsZkHv0gszeyshb74MD2MBMGA1UdJQQMMAoGCCsGAQUFBwMC
MAsGA1UdDwQEAwIHgDANBgkqhkiG9w0BAQsFAAOBgQArhIUOhGK+VGmfmJuxeyEk
anvO3M5clx0wQAM13NT+P/Qdi8kGWBNofSyADYkJ6EHn0uARZfL5d99ueU8U1w9E
hgKSfEuEWLpqOJK6lELhkrP2U7WRALiu880iAGOHpiKJgiGTX3iV2DE7GAg99oKH
HFPwF0fEBLocWKpYLyXrYg==
-----END CERTIFICATE-----
